
MCLock.elf:     file format elf32-littlearm

Sections:
Idx Name          Size      VMA       LMA       File off  Algn
  0 .isr_vector   000001ac  08000000  08000000  00010000  2**0
                  CONTENTS, ALLOC, LOAD, READONLY, DATA
  1 .text         00003550  080001b0  080001b0  000101b0  2**3
                  CONTENTS, ALLOC, LOAD, READONLY, CODE
  2 .sram_func    00000678  20000000  08003700  00020000  2**3
                  CONTENTS, ALLOC, LOAD, READONLY, CODE
  3 .rodata       00000018  08003d78  08003d78  00023d78  2**2
                  CONTENTS, ALLOC, LOAD, READONLY, DATA
  4 .ARM.extab    00000000  08003d90  08003d90  000306e8  2**0
                  CONTENTS
  5 .ARM          00000008  08003d90  08003d90  00023d90  2**2
                  CONTENTS, ALLOC, LOAD, READONLY, DATA
  6 .preinit_array 00000000  08003d98  08003d98  000306e8  2**0
                  CONTENTS, ALLOC, LOAD, DATA
  7 .init_array   00000008  08003d98  08003d98  00023d98  2**2
                  CONTENTS, ALLOC, LOAD, DATA
  8 .fini_array   00000004  08003da0  08003da0  00023da0  2**2
                  CONTENTS, ALLOC, LOAD, DATA
  9 .data         00000070  20000678  08003da4  00030678  2**2
                  CONTENTS, ALLOC, LOAD, DATA
 10 .bss          000005cc  200006e8  08003e14  000306e8  2**2
                  ALLOC
 11 ._user_heap_stack 00000604  20000cb4  08003e14  00030cb4  2**0
                  ALLOC
 12 .ARM.attributes 00000030  00000000  00000000  000306e8  2**0
                  CONTENTS, READONLY
 13 .comment      0000007b  00000000  00000000  00030718  2**0
                  CONTENTS, READONLY
 14 .debug_frame  00000578  00000000  00000000  00030794  2**2
                  CONTENTS, READONLY, DEBUGGING

Disassembly of section .text:

080001b0 <__do_global_dtors_aux>:
 80001b0:	b510      	push	{r4, lr}
 80001b2:	4c05      	ldr	r4, [pc, #20]	; (80001c8 <__do_global_dtors_aux+0x18>)
 80001b4:	7823      	ldrb	r3, [r4, #0]
 80001b6:	b933      	cbnz	r3, 80001c6 <__do_global_dtors_aux+0x16>
 80001b8:	4b04      	ldr	r3, [pc, #16]	; (80001cc <__do_global_dtors_aux+0x1c>)
 80001ba:	b113      	cbz	r3, 80001c2 <__do_global_dtors_aux+0x12>
 80001bc:	4804      	ldr	r0, [pc, #16]	; (80001d0 <__do_global_dtors_aux+0x20>)
 80001be:	f3af 8000 	nop.w
 80001c2:	2301      	movs	r3, #1
 80001c4:	7023      	strb	r3, [r4, #0]
 80001c6:	bd10      	pop	{r4, pc}
 80001c8:	200006e8 	.word	0x200006e8
 80001cc:	00000000 	.word	0x00000000
 80001d0:	0800369c 	.word	0x0800369c

080001d4 <frame_dummy>:
 80001d4:	b508      	push	{r3, lr}
 80001d6:	4b03      	ldr	r3, [pc, #12]	; (80001e4 <frame_dummy+0x10>)
 80001d8:	b11b      	cbz	r3, 80001e2 <frame_dummy+0xe>
 80001da:	4903      	ldr	r1, [pc, #12]	; (80001e8 <frame_dummy+0x14>)
 80001dc:	4803      	ldr	r0, [pc, #12]	; (80001ec <frame_dummy+0x18>)
 80001de:	f3af 8000 	nop.w
 80001e2:	bd08      	pop	{r3, pc}
 80001e4:	00000000 	.word	0x00000000
 80001e8:	200006ec 	.word	0x200006ec
 80001ec:	0800369c 	.word	0x0800369c

080001f0 <__aeabi_uldivmod>:
 80001f0:	b953      	cbnz	r3, 8000208 <__aeabi_uldivmod+0x18>
 80001f2:	b94a      	cbnz	r2, 8000208 <__aeabi_uldivmod+0x18>
 80001f4:	2900      	cmp	r1, #0
 80001f6:	bf08      	it	eq
 80001f8:	2800      	cmpeq	r0, #0
 80001fa:	bf1c      	itt	ne
 80001fc:	f04f 31ff 	movne.w	r1, #4294967295
 8000200:	f04f 30ff 	movne.w	r0, #4294967295
 8000204:	f000 b972 	b.w	80004ec <__aeabi_idiv0>
 8000208:	f1ad 0c08 	sub.w	ip, sp, #8
 800020c:	e96d ce04 	strd	ip, lr, [sp, #-16]!
 8000210:	f000 f806 	bl	8000220 <__udivmoddi4>
 8000214:	f8dd e004 	ldr.w	lr, [sp, #4]
 8000218:	e9dd 2302 	ldrd	r2, r3, [sp, #8]
 800021c:	b004      	add	sp, #16
 800021e:	4770      	bx	lr

08000220 <__udivmoddi4>:
 8000220:	e92d 47f0 	stmdb	sp!, {r4, r5, r6, r7, r8, r9, sl, lr}
 8000224:	9e08      	ldr	r6, [sp, #32]
 8000226:	4604      	mov	r4, r0
 8000228:	4688      	mov	r8, r1
 800022a:	2b00      	cmp	r3, #0
 800022c:	d14b      	bne.n	80002c6 <__udivmoddi4+0xa6>
 800022e:	428a      	cmp	r2, r1
 8000230:	4615      	mov	r5, r2
 8000232:	d967      	bls.n	8000304 <__udivmoddi4+0xe4>
 8000234:	fab2 f282 	clz	r2, r2
 8000238:	b14a      	cbz	r2, 800024e <__udivmoddi4+0x2e>
 800023a:	f1c2 0720 	rsb	r7, r2, #32
 800023e:	fa01 f302 	lsl.w	r3, r1, r2
 8000242:	fa20 f707 	lsr.w	r7, r0, r7
 8000246:	4095      	lsls	r5, r2
 8000248:	ea47 0803 	orr.w	r8, r7, r3
 800024c:	4094      	lsls	r4, r2
 800024e:	ea4f 4e15 	mov.w	lr, r5, lsr #16
 8000252:	0c23      	lsrs	r3, r4, #16
 8000254:	fbb8 f7fe 	udiv	r7, r8, lr
 8000258:	fa1f fc85 	uxth.w	ip, r5
 800025c:	fb0e 8817 	mls	r8, lr, r7, r8
 8000260:	ea43 4308 	orr.w	r3, r3, r8, lsl #16
 8000264:	fb07 f10c 	mul.w	r1, r7, ip
 8000268:	4299      	cmp	r1, r3
 800026a:	d909      	bls.n	8000280 <__udivmoddi4+0x60>
 800026c:	18eb      	adds	r3, r5, r3
 800026e:	f107 30ff 	add.w	r0, r7, #4294967295
 8000272:	f080 811b 	bcs.w	80004ac <__udivmoddi4+0x28c>
 8000276:	4299      	cmp	r1, r3
 8000278:	f240 8118 	bls.w	80004ac <__udivmoddi4+0x28c>
 800027c:	3f02      	subs	r7, #2
 800027e:	442b      	add	r3, r5
 8000280:	1a5b      	subs	r3, r3, r1
 8000282:	b2a4      	uxth	r4, r4
 8000284:	fbb3 f0fe 	udiv	r0, r3, lr
 8000288:	fb0e 3310 	mls	r3, lr, r0, r3
 800028c:	ea44 4403 	orr.w	r4, r4, r3, lsl #16
 8000290:	fb00 fc0c 	mul.w	ip, r0, ip
 8000294:	45a4      	cmp	ip, r4
 8000296:	d909      	bls.n	80002ac <__udivmoddi4+0x8c>
 8000298:	192c      	adds	r4, r5, r4
 800029a:	f100 33ff 	add.w	r3, r0, #4294967295
 800029e:	f080 8107 	bcs.w	80004b0 <__udivmoddi4+0x290>
 80002a2:	45a4      	cmp	ip, r4
 80002a4:	f240 8104 	bls.w	80004b0 <__udivmoddi4+0x290>
 80002a8:	3802      	subs	r0, #2
 80002aa:	442c      	add	r4, r5
 80002ac:	ea40 4007 	orr.w	r0, r0, r7, lsl #16
 80002b0:	eba4 040c 	sub.w	r4, r4, ip
 80002b4:	2700      	movs	r7, #0
 80002b6:	b11e      	cbz	r6, 80002c0 <__udivmoddi4+0xa0>
 80002b8:	40d4      	lsrs	r4, r2
 80002ba:	2300      	movs	r3, #0
 80002bc:	e9c6 4300 	strd	r4, r3, [r6]
 80002c0:	4639      	mov	r1, r7
 80002c2:	e8bd 87f0 	ldmia.w	sp!, {r4, r5, r6, r7, r8, r9, sl, pc}
 80002c6:	428b      	cmp	r3, r1
 80002c8:	d909      	bls.n	80002de <__udivmoddi4+0xbe>
 80002ca:	2e00      	cmp	r6, #0
 80002cc:	f000 80eb 	beq.w	80004a6 <__udivmoddi4+0x286>
 80002d0:	2700      	movs	r7, #0
 80002d2:	e9c6 0100 	strd	r0, r1, [r6]
 80002d6:	4638      	mov	r0, r7
 80002d8:	4639      	mov	r1, r7
 80002da:	e8bd 87f0 	ldmia.w	sp!, {r4, r5, r6, r7, r8, r9, sl, pc}
 80002de:	fab3 f783 	clz	r7, r3
 80002e2:	2f00      	cmp	r7, #0
 80002e4:	d147      	bne.n	8000376 <__udivmoddi4+0x156>
 80002e6:	428b      	cmp	r3, r1
 80002e8:	d302      	bcc.n	80002f0 <__udivmoddi4+0xd0>
 80002ea:	4282      	cmp	r2, r0
 80002ec:	f200 80fa 	bhi.w	80004e4 <__udivmoddi4+0x2c4>
 80002f0:	1a84      	subs	r4, r0, r2
 80002f2:	eb61 0303 	sbc.w	r3, r1, r3
 80002f6:	2001      	movs	r0, #1
 80002f8:	4698      	mov	r8, r3
 80002fa:	2e00      	cmp	r6, #0
 80002fc:	d0e0      	beq.n	80002c0 <__udivmoddi4+0xa0>
 80002fe:	e9c6 4800 	strd	r4, r8, [r6]
 8000302:	e7dd      	b.n	80002c0 <__udivmoddi4+0xa0>
 8000304:	b902      	cbnz	r2, 8000308 <__udivmoddi4+0xe8>
 8000306:	deff      	udf	#255	; 0xff
 8000308:	fab2 f282 	clz	r2, r2
 800030c:	2a00      	cmp	r2, #0
 800030e:	f040 808f 	bne.w	8000430 <__udivmoddi4+0x210>
 8000312:	1b49      	subs	r1, r1, r5
 8000314:	ea4f 4e15 	mov.w	lr, r5, lsr #16
 8000318:	fa1f f885 	uxth.w	r8, r5
 800031c:	2701      	movs	r7, #1
 800031e:	fbb1 fcfe 	udiv	ip, r1, lr
 8000322:	0c23      	lsrs	r3, r4, #16
 8000324:	fb0e 111c 	mls	r1, lr, ip, r1
 8000328:	ea43 4301 	orr.w	r3, r3, r1, lsl #16
 800032c:	fb08 f10c 	mul.w	r1, r8, ip
 8000330:	4299      	cmp	r1, r3
 8000332:	d907      	bls.n	8000344 <__udivmoddi4+0x124>
 8000334:	18eb      	adds	r3, r5, r3
 8000336:	f10c 30ff 	add.w	r0, ip, #4294967295
 800033a:	d202      	bcs.n	8000342 <__udivmoddi4+0x122>
 800033c:	4299      	cmp	r1, r3
 800033e:	f200 80cd 	bhi.w	80004dc <__udivmoddi4+0x2bc>
 8000342:	4684      	mov	ip, r0
 8000344:	1a59      	subs	r1, r3, r1
 8000346:	b2a3      	uxth	r3, r4
 8000348:	fbb1 f0fe 	udiv	r0, r1, lr
 800034c:	fb0e 1410 	mls	r4, lr, r0, r1
 8000350:	ea43 4404 	orr.w	r4, r3, r4, lsl #16
 8000354:	fb08 f800 	mul.w	r8, r8, r0
 8000358:	45a0      	cmp	r8, r4
 800035a:	d907      	bls.n	800036c <__udivmoddi4+0x14c>
 800035c:	192c      	adds	r4, r5, r4
 800035e:	f100 33ff 	add.w	r3, r0, #4294967295
 8000362:	d202      	bcs.n	800036a <__udivmoddi4+0x14a>
 8000364:	45a0      	cmp	r8, r4
 8000366:	f200 80b6 	bhi.w	80004d6 <__udivmoddi4+0x2b6>
 800036a:	4618      	mov	r0, r3
 800036c:	eba4 0408 	sub.w	r4, r4, r8
 8000370:	ea40 400c 	orr.w	r0, r0, ip, lsl #16
 8000374:	e79f      	b.n	80002b6 <__udivmoddi4+0x96>
 8000376:	f1c7 0c20 	rsb	ip, r7, #32
 800037a:	40bb      	lsls	r3, r7
 800037c:	fa22 fe0c 	lsr.w	lr, r2, ip
 8000380:	ea4e 0e03 	orr.w	lr, lr, r3
 8000384:	fa01 f407 	lsl.w	r4, r1, r7
 8000388:	fa20 f50c 	lsr.w	r5, r0, ip
 800038c:	fa21 f30c 	lsr.w	r3, r1, ip
 8000390:	ea4f 481e 	mov.w	r8, lr, lsr #16
 8000394:	4325      	orrs	r5, r4
 8000396:	fbb3 f9f8 	udiv	r9, r3, r8
 800039a:	0c2c      	lsrs	r4, r5, #16
 800039c:	fb08 3319 	mls	r3, r8, r9, r3
 80003a0:	fa1f fa8e 	uxth.w	sl, lr
 80003a4:	ea44 4303 	orr.w	r3, r4, r3, lsl #16
 80003a8:	fb09 f40a 	mul.w	r4, r9, sl
 80003ac:	429c      	cmp	r4, r3
 80003ae:	fa02 f207 	lsl.w	r2, r2, r7
 80003b2:	fa00 f107 	lsl.w	r1, r0, r7
 80003b6:	d90b      	bls.n	80003d0 <__udivmoddi4+0x1b0>
 80003b8:	eb1e 0303 	adds.w	r3, lr, r3
 80003bc:	f109 30ff 	add.w	r0, r9, #4294967295
 80003c0:	f080 8087 	bcs.w	80004d2 <__udivmoddi4+0x2b2>
 80003c4:	429c      	cmp	r4, r3
 80003c6:	f240 8084 	bls.w	80004d2 <__udivmoddi4+0x2b2>
 80003ca:	f1a9 0902 	sub.w	r9, r9, #2
 80003ce:	4473      	add	r3, lr
 80003d0:	1b1b      	subs	r3, r3, r4
 80003d2:	b2ad      	uxth	r5, r5
 80003d4:	fbb3 f0f8 	udiv	r0, r3, r8
 80003d8:	fb08 3310 	mls	r3, r8, r0, r3
 80003dc:	ea45 4403 	orr.w	r4, r5, r3, lsl #16
 80003e0:	fb00 fa0a 	mul.w	sl, r0, sl
 80003e4:	45a2      	cmp	sl, r4
 80003e6:	d908      	bls.n	80003fa <__udivmoddi4+0x1da>
 80003e8:	eb1e 0404 	adds.w	r4, lr, r4
 80003ec:	f100 33ff 	add.w	r3, r0, #4294967295
 80003f0:	d26b      	bcs.n	80004ca <__udivmoddi4+0x2aa>
 80003f2:	45a2      	cmp	sl, r4
 80003f4:	d969      	bls.n	80004ca <__udivmoddi4+0x2aa>
 80003f6:	3802      	subs	r0, #2
 80003f8:	4474      	add	r4, lr
 80003fa:	ea40 4009 	orr.w	r0, r0, r9, lsl #16
 80003fe:	fba0 8902 	umull	r8, r9, r0, r2
 8000402:	eba4 040a 	sub.w	r4, r4, sl
 8000406:	454c      	cmp	r4, r9
 8000408:	46c2      	mov	sl, r8
 800040a:	464b      	mov	r3, r9
 800040c:	d354      	bcc.n	80004b8 <__udivmoddi4+0x298>
 800040e:	d051      	beq.n	80004b4 <__udivmoddi4+0x294>
 8000410:	2e00      	cmp	r6, #0
 8000412:	d069      	beq.n	80004e8 <__udivmoddi4+0x2c8>
 8000414:	ebb1 050a 	subs.w	r5, r1, sl
 8000418:	eb64 0403 	sbc.w	r4, r4, r3
 800041c:	fa04 fc0c 	lsl.w	ip, r4, ip
 8000420:	40fd      	lsrs	r5, r7
 8000422:	40fc      	lsrs	r4, r7
 8000424:	ea4c 0505 	orr.w	r5, ip, r5
 8000428:	e9c6 5400 	strd	r5, r4, [r6]
 800042c:	2700      	movs	r7, #0
 800042e:	e747      	b.n	80002c0 <__udivmoddi4+0xa0>
 8000430:	f1c2 0320 	rsb	r3, r2, #32
 8000434:	fa20 f703 	lsr.w	r7, r0, r3
 8000438:	4095      	lsls	r5, r2
 800043a:	fa01 f002 	lsl.w	r0, r1, r2
 800043e:	fa21 f303 	lsr.w	r3, r1, r3
 8000442:	ea4f 4e15 	mov.w	lr, r5, lsr #16
 8000446:	4338      	orrs	r0, r7
 8000448:	0c01      	lsrs	r1, r0, #16
 800044a:	fbb3 f7fe 	udiv	r7, r3, lr
 800044e:	fa1f f885 	uxth.w	r8, r5
 8000452:	fb0e 3317 	mls	r3, lr, r7, r3
 8000456:	ea41 4103 	orr.w	r1, r1, r3, lsl #16
 800045a:	fb07 f308 	mul.w	r3, r7, r8
 800045e:	428b      	cmp	r3, r1
 8000460:	fa04 f402 	lsl.w	r4, r4, r2
 8000464:	d907      	bls.n	8000476 <__udivmoddi4+0x256>
 8000466:	1869      	adds	r1, r5, r1
 8000468:	f107 3cff 	add.w	ip, r7, #4294967295
 800046c:	d22f      	bcs.n	80004ce <__udivmoddi4+0x2ae>
 800046e:	428b      	cmp	r3, r1
 8000470:	d92d      	bls.n	80004ce <__udivmoddi4+0x2ae>
 8000472:	3f02      	subs	r7, #2
 8000474:	4429      	add	r1, r5
 8000476:	1acb      	subs	r3, r1, r3
 8000478:	b281      	uxth	r1, r0
 800047a:	fbb3 f0fe 	udiv	r0, r3, lr
 800047e:	fb0e 3310 	mls	r3, lr, r0, r3
 8000482:	ea41 4103 	orr.w	r1, r1, r3, lsl #16
 8000486:	fb00 f308 	mul.w	r3, r0, r8
 800048a:	428b      	cmp	r3, r1
 800048c:	d907      	bls.n	800049e <__udivmoddi4+0x27e>
 800048e:	1869      	adds	r1, r5, r1
 8000490:	f100 3cff 	add.w	ip, r0, #4294967295
 8000494:	d217      	bcs.n	80004c6 <__udivmoddi4+0x2a6>
 8000496:	428b      	cmp	r3, r1
 8000498:	d915      	bls.n	80004c6 <__udivmoddi4+0x2a6>
 800049a:	3802      	subs	r0, #2
 800049c:	4429      	add	r1, r5
 800049e:	1ac9      	subs	r1, r1, r3
 80004a0:	ea40 4707 	orr.w	r7, r0, r7, lsl #16
 80004a4:	e73b      	b.n	800031e <__udivmoddi4+0xfe>
 80004a6:	4637      	mov	r7, r6
 80004a8:	4630      	mov	r0, r6
 80004aa:	e709      	b.n	80002c0 <__udivmoddi4+0xa0>
 80004ac:	4607      	mov	r7, r0
 80004ae:	e6e7      	b.n	8000280 <__udivmoddi4+0x60>
 80004b0:	4618      	mov	r0, r3
 80004b2:	e6fb      	b.n	80002ac <__udivmoddi4+0x8c>
 80004b4:	4541      	cmp	r1, r8
 80004b6:	d2ab      	bcs.n	8000410 <__udivmoddi4+0x1f0>
 80004b8:	ebb8 0a02 	subs.w	sl, r8, r2
 80004bc:	eb69 020e 	sbc.w	r2, r9, lr
 80004c0:	3801      	subs	r0, #1
 80004c2:	4613      	mov	r3, r2
 80004c4:	e7a4      	b.n	8000410 <__udivmoddi4+0x1f0>
 80004c6:	4660      	mov	r0, ip
 80004c8:	e7e9      	b.n	800049e <__udivmoddi4+0x27e>
 80004ca:	4618      	mov	r0, r3
 80004cc:	e795      	b.n	80003fa <__udivmoddi4+0x1da>
 80004ce:	4667      	mov	r7, ip
 80004d0:	e7d1      	b.n	8000476 <__udivmoddi4+0x256>
 80004d2:	4681      	mov	r9, r0
 80004d4:	e77c      	b.n	80003d0 <__udivmoddi4+0x1b0>
 80004d6:	3802      	subs	r0, #2
 80004d8:	442c      	add	r4, r5
 80004da:	e747      	b.n	800036c <__udivmoddi4+0x14c>
 80004dc:	f1ac 0c02 	sub.w	ip, ip, #2
 80004e0:	442b      	add	r3, r5
 80004e2:	e72f      	b.n	8000344 <__udivmoddi4+0x124>
 80004e4:	4638      	mov	r0, r7
 80004e6:	e708      	b.n	80002fa <__udivmoddi4+0xda>
 80004e8:	4637      	mov	r7, r6
 80004ea:	e6e9      	b.n	80002c0 <__udivmoddi4+0xa0>

080004ec <__aeabi_idiv0>:
 80004ec:	4770      	bx	lr
 80004ee:	bf00      	nop

080004f0 <_ZN7ADC_DevC1EhhhhhP12GPIO_TypeDeft>:
 80004f0:	e92d 4ff0 	stmdb	sp!, {r4, r5, r6, r7, r8, r9, sl, fp, lr}
 80004f4:	ed2d 8b02 	vpush	{d8}
 80004f8:	b087      	sub	sp, #28
 80004fa:	4604      	mov	r4, r0
 80004fc:	9d14      	ldr	r5, [sp, #80]	; 0x50
 80004fe:	f8bd 0054 	ldrh.w	r0, [sp, #84]	; 0x54
 8000502:	6025      	str	r5, [r4, #0]
 8000504:	4698      	mov	r8, r3
 8000506:	f89d 3048 	ldrb.w	r3, [sp, #72]	; 0x48
 800050a:	80a0      	strh	r0, [r4, #4]
 800050c:	9304      	str	r3, [sp, #16]
 800050e:	2006      	movs	r0, #6
 8000510:	f89d 304c 	ldrb.w	r3, [sp, #76]	; 0x4c
 8000514:	9305      	str	r3, [sp, #20]
 8000516:	460e      	mov	r6, r1
 8000518:	4617      	mov	r7, r2
 800051a:	f002 ff43 	bl	80033a4 <_Znaj>
 800051e:	60a0      	str	r0, [r4, #8]
 8000520:	2006      	movs	r0, #6
 8000522:	f002 ff3f 	bl	80033a4 <_Znaj>
 8000526:	4603      	mov	r3, r0
 8000528:	2501      	movs	r5, #1
 800052a:	f04f 0b00 	mov.w	fp, #0
 800052e:	60e0      	str	r0, [r4, #12]
 8000530:	7425      	strb	r5, [r4, #16]
 8000532:	f8c3 b000 	str.w	fp, [r3]
 8000536:	f8a3 b004 	strh.w	fp, [r3, #4]
 800053a:	201c      	movs	r0, #28
 800053c:	f002 ff36 	bl	80033ac <_Znwj>
 8000540:	ed9f 8a33 	vldr	s16, [pc, #204]	; 8000610 <_ZN7ADC_DevC1EhhhhhP12GPIO_TypeDeft+0x120>
 8000544:	68e3      	ldr	r3, [r4, #12]
 8000546:	6004      	str	r4, [r0, #0]
 8000548:	7405      	strb	r5, [r0, #16]
 800054a:	f880 b011 	strb.w	fp, [r0, #17]
 800054e:	61e0      	str	r0, [r4, #28]
 8000550:	7205      	strb	r5, [r0, #8]
 8000552:	ed80 8a01 	vstr	s16, [r0, #4]
 8000556:	f993 2000 	ldrsb.w	r2, [r3]
 800055a:	68a0      	ldr	r0, [r4, #8]
 800055c:	f04f 0906 	mov.w	r9, #6
 8000560:	4629      	mov	r1, r5
 8000562:	f884 9018 	strb.w	r9, [r4, #24]
 8000566:	f062 0a1f 	orn	sl, r2, #31
 800056a:	f002 ff1d 	bl	80033a8 <_ZdlPvj>
 800056e:	7e20      	ldrb	r0, [r4, #24]
 8000570:	f002 ff18 	bl	80033a4 <_Znaj>
 8000574:	4629      	mov	r1, r5
 8000576:	60a0      	str	r0, [r4, #8]
 8000578:	68e0      	ldr	r0, [r4, #12]
 800057a:	f002 ff15 	bl	80033a8 <_ZdlPvj>
 800057e:	7e20      	ldrb	r0, [r4, #24]
 8000580:	f002 ff10 	bl	80033a4 <_Znaj>
 8000584:	4601      	mov	r1, r0
 8000586:	60e0      	str	r0, [r4, #12]
 8000588:	f881 a000 	strb.w	sl, [r1]
 800058c:	201c      	movs	r0, #28
 800058e:	f002 ff0d 	bl	80033ac <_Znwj>
 8000592:	68e2      	ldr	r2, [r4, #12]
 8000594:	f880 b011 	strb.w	fp, [r0, #17]
 8000598:	2102      	movs	r1, #2
 800059a:	6004      	str	r4, [r0, #0]
 800059c:	6220      	str	r0, [r4, #32]
 800059e:	ed80 8a01 	vstr	s16, [r0, #4]
 80005a2:	7205      	strb	r5, [r0, #8]
 80005a4:	7401      	strb	r1, [r0, #16]
 80005a6:	f992 2000 	ldrsb.w	r2, [r2]
 80005aa:	68a0      	ldr	r0, [r4, #8]
 80005ac:	f012 0fe0 	tst.w	r2, #224	; 0xe0
 80005b0:	bf06      	itte	eq
 80005b2:	2303      	moveq	r3, #3
 80005b4:	7623      	strbeq	r3, [r4, #24]
 80005b6:	f884 9018 	strbne.w	r9, [r4, #24]
 80005ba:	2101      	movs	r1, #1
 80005bc:	f002 fef4 	bl	80033a8 <_ZdlPvj>
 80005c0:	7e20      	ldrb	r0, [r4, #24]
 80005c2:	f002 feef 	bl	80033a4 <_Znaj>
 80005c6:	2101      	movs	r1, #1
 80005c8:	60a0      	str	r0, [r4, #8]
 80005ca:	68e0      	ldr	r0, [r4, #12]
 80005cc:	f002 feec 	bl	80033a8 <_ZdlPvj>
 80005d0:	7e20      	ldrb	r0, [r4, #24]
 80005d2:	f002 fee7 	bl	80033a4 <_Znaj>
 80005d6:	4603      	mov	r3, r0
 80005d8:	22fc      	movs	r2, #252	; 0xfc
 80005da:	60e0      	str	r0, [r4, #12]
 80005dc:	701a      	strb	r2, [r3, #0]
 80005de:	201c      	movs	r0, #28
 80005e0:	f002 fee4 	bl	80033ac <_Znwj>
 80005e4:	9b05      	ldr	r3, [sp, #20]
 80005e6:	9301      	str	r3, [sp, #4]
 80005e8:	f04f 0c02 	mov.w	ip, #2
 80005ec:	9b04      	ldr	r3, [sp, #16]
 80005ee:	9300      	str	r3, [sp, #0]
 80005f0:	463a      	mov	r2, r7
 80005f2:	4643      	mov	r3, r8
 80005f4:	4631      	mov	r1, r6
 80005f6:	f8cd c008 	str.w	ip, [sp, #8]
 80005fa:	4605      	mov	r5, r0
 80005fc:	f001 f9b4 	bl	8001968 <_ZN15SPI_DMA_HandlerC1Ehhhhhm>
 8000600:	4620      	mov	r0, r4
 8000602:	6165      	str	r5, [r4, #20]
 8000604:	b007      	add	sp, #28
 8000606:	ecbd 8b02 	vpop	{d8}
 800060a:	e8bd 8ff0 	ldmia.w	sp!, {r4, r5, r6, r7, r8, r9, sl, fp, pc}
 800060e:	bf00      	nop
 8000610:	39a3d7ae 	.word	0x39a3d7ae

08000614 <_ZN11ADC_Channel10SetLowPassEbf>:
 8000614:	2301      	movs	r3, #1
 8000616:	7441      	strb	r1, [r0, #17]
 8000618:	ed80 0a05 	vstr	s0, [r0, #20]
 800061c:	7483      	strb	r3, [r0, #18]
 800061e:	4770      	bx	lr

08000620 <HAL_GPIO_EXTI_Callback>:
 8000620:	2802      	cmp	r0, #2
 8000622:	b510      	push	{r4, lr}
 8000624:	4604      	mov	r4, r0
 8000626:	d012      	beq.n	800064e <HAL_GPIO_EXTI_Callback+0x2e>
 8000628:	2840      	cmp	r0, #64	; 0x40
 800062a:	d000      	beq.n	800062e <HAL_GPIO_EXTI_Callback+0xe>
 800062c:	bd10      	pop	{r4, pc}
 800062e:	f000 fcc5 	bl	8000fbc <_Z13turn_LED1_offv>
 8000632:	f000 fccb 	bl	8000fcc <_Z13turn_LED2_offv>
 8000636:	f000 fcd9 	bl	8000fec <_Z13turn_LED3_offv>
 800063a:	480a      	ldr	r0, [pc, #40]	; (8000664 <HAL_GPIO_EXTI_Callback+0x44>)
 800063c:	f002 fd1e 	bl	800307c <HAL_TIM_Base_Stop_IT>
 8000640:	4909      	ldr	r1, [pc, #36]	; (8000668 <HAL_GPIO_EXTI_Callback+0x48>)
 8000642:	4b0a      	ldr	r3, [pc, #40]	; (800066c <HAL_GPIO_EXTI_Callback+0x4c>)
 8000644:	2000      	movs	r0, #0
 8000646:	2201      	movs	r2, #1
 8000648:	7008      	strb	r0, [r1, #0]
 800064a:	701a      	strb	r2, [r3, #0]
 800064c:	bd10      	pop	{r4, pc}
 800064e:	4601      	mov	r1, r0
 8000650:	4807      	ldr	r0, [pc, #28]	; (8000670 <HAL_GPIO_EXTI_Callback+0x50>)
 8000652:	f002 f96f 	bl	8002934 <HAL_GPIO_ReadPin>
 8000656:	4621      	mov	r1, r4
 8000658:	4805      	ldr	r0, [pc, #20]	; (8000670 <HAL_GPIO_EXTI_Callback+0x50>)
 800065a:	e8bd 4010 	ldmia.w	sp!, {r4, lr}
 800065e:	f002 b969 	b.w	8002934 <HAL_GPIO_ReadPin>
 8000662:	bf00      	nop
 8000664:	20000aec 	.word	0x20000aec
 8000668:	20000708 	.word	0x20000708
 800066c:	20000718 	.word	0x20000718
 8000670:	40020400 	.word	0x40020400

08000674 <cppmain>:
 8000674:	e92d 4ff0 	stmdb	sp!, {r4, r5, r6, r7, r8, r9, sl, fp, lr}
 8000678:	49bc      	ldr	r1, [pc, #752]	; (800096c <cppmain+0x2f8>)
 800067a:	4abd      	ldr	r2, [pc, #756]	; (8000970 <cppmain+0x2fc>)
 800067c:	ed2d 8b06 	vpush	{d8-d10}
 8000680:	4291      	cmp	r1, r2
 8000682:	b0a9      	sub	sp, #164	; 0xa4
 8000684:	d20c      	bcs.n	80006a0 <cppmain+0x2c>
 8000686:	43cb      	mvns	r3, r1
 8000688:	4413      	add	r3, r2
 800068a:	f023 0303 	bic.w	r3, r3, #3
 800068e:	4ab9      	ldr	r2, [pc, #740]	; (8000974 <cppmain+0x300>)
 8000690:	3304      	adds	r3, #4
 8000692:	4413      	add	r3, r2
 8000694:	f852 0b04 	ldr.w	r0, [r2], #4
 8000698:	f841 0b04 	str.w	r0, [r1], #4
 800069c:	429a      	cmp	r2, r3
 800069e:	d1f9      	bne.n	8000694 <cppmain+0x20>
 80006a0:	20c8      	movs	r0, #200	; 0xc8
 80006a2:	f001 fe17 	bl	80022d4 <HAL_Delay>
 80006a6:	2024      	movs	r0, #36	; 0x24
 80006a8:	f002 fe80 	bl	80033ac <_Znwj>
 80006ac:	4ab2      	ldr	r2, [pc, #712]	; (8000978 <cppmain+0x304>)
 80006ae:	4fb3      	ldr	r7, [pc, #716]	; (800097c <cppmain+0x308>)
 80006b0:	4eb3      	ldr	r6, [pc, #716]	; (8000980 <cppmain+0x30c>)
 80006b2:	f8df 92f8 	ldr.w	r9, [pc, #760]	; 80009ac <cppmain+0x338>
 80006b6:	2303      	movs	r3, #3
 80006b8:	2510      	movs	r5, #16
 80006ba:	e9cd 3201 	strd	r3, r2, [sp, #4]
 80006be:	9300      	str	r3, [sp, #0]
 80006c0:	2202      	movs	r2, #2
 80006c2:	2101      	movs	r1, #1
 80006c4:	9503      	str	r5, [sp, #12]
 80006c6:	4604      	mov	r4, r0
 80006c8:	f7ff ff12 	bl	80004f0 <_ZN7ADC_DevC1EhhhhhP12GPIO_TypeDeft>
 80006cc:	205c      	movs	r0, #92	; 0x5c
 80006ce:	603c      	str	r4, [r7, #0]
 80006d0:	f002 fe6c 	bl	80033ac <_Znwj>
 80006d4:	4bab      	ldr	r3, [pc, #684]	; (8000984 <cppmain+0x310>)
 80006d6:	9302      	str	r3, [sp, #8]
 80006d8:	f44f 6200 	mov.w	r2, #2048	; 0x800
 80006dc:	9203      	str	r2, [sp, #12]
 80006de:	f44f 7280 	mov.w	r2, #256	; 0x100
 80006e2:	e9cd 3200 	strd	r3, r2, [sp]
 80006e6:	2106      	movs	r1, #6
 80006e8:	2301      	movs	r3, #1
 80006ea:	2205      	movs	r2, #5
 80006ec:	4604      	mov	r4, r0
 80006ee:	f000 fbab 	bl	8000e48 <_ZN7DAC_DevC1EhhhP12GPIO_TypeDeftS1_t>
 80006f2:	205c      	movs	r0, #92	; 0x5c
 80006f4:	6034      	str	r4, [r6, #0]
 80006f6:	f002 fe59 	bl	80033ac <_Znwj>
 80006fa:	49a3      	ldr	r1, [pc, #652]	; (8000988 <cppmain+0x314>)
 80006fc:	4ba3      	ldr	r3, [pc, #652]	; (800098c <cppmain+0x318>)
 80006fe:	9300      	str	r3, [sp, #0]
 8000700:	2404      	movs	r4, #4
 8000702:	f04f 0840 	mov.w	r8, #64	; 0x40
 8000706:	4622      	mov	r2, r4
 8000708:	e9cd 8101 	strd	r8, r1, [sp, #4]
 800070c:	2302      	movs	r3, #2
 800070e:	2105      	movs	r1, #5
 8000710:	9403      	str	r4, [sp, #12]
 8000712:	4606      	mov	r6, r0
 8000714:	f000 fb98 	bl	8000e48 <_ZN7DAC_DevC1EhhhP12GPIO_TypeDeftS1_t>
 8000718:	4628      	mov	r0, r5
 800071a:	f8c9 6000 	str.w	r6, [r9]
 800071e:	f002 fe45 	bl	80033ac <_Znwj>
 8000722:	2501      	movs	r5, #1
 8000724:	4a9a      	ldr	r2, [pc, #616]	; (8000990 <cppmain+0x31c>)
 8000726:	f8cd 800c 	str.w	r8, [sp, #12]
 800072a:	4623      	mov	r3, r4
 800072c:	4621      	mov	r1, r4
 800072e:	9401      	str	r4, [sp, #4]
 8000730:	9202      	str	r2, [sp, #8]
 8000732:	9500      	str	r5, [sp, #0]
 8000734:	2200      	movs	r2, #0
 8000736:	4606      	mov	r6, r0
 8000738:	f001 fa68 	bl	8001c0c <_ZN11RaspberryPiC1EhhhhhP12GPIO_TypeDeft>
 800073c:	4b95      	ldr	r3, [pc, #596]	; (8000994 <cppmain+0x320>)
 800073e:	4c96      	ldr	r4, [pc, #600]	; (8000998 <cppmain+0x324>)
 8000740:	601e      	str	r6, [r3, #0]
 8000742:	4631      	mov	r1, r6
 8000744:	a817      	add	r0, sp, #92	; 0x5c
 8000746:	f001 fa3f 	bl	8001bc8 <_ZN12OscilloscopeC1EP11RaspberryPi>
 800074a:	21c8      	movs	r1, #200	; 0xc8
 800074c:	a817      	add	r0, sp, #92	; 0x5c
 800074e:	f001 fa4d 	bl	8001bec <_ZN12Oscilloscope5SetupEt>
 8000752:	2030      	movs	r0, #48	; 0x30
 8000754:	f002 fe2a 	bl	80033ac <_Znwj>
 8000758:	4680      	mov	r8, r0
 800075a:	4e89      	ldr	r6, [pc, #548]	; (8000980 <cppmain+0x30c>)
 800075c:	f888 502c 	strb.w	r5, [r8, #44]	; 0x2c
 8000760:	f04f 517e 	mov.w	r1, #1065353216	; 0x3f800000
 8000764:	2300      	movs	r3, #0
 8000766:	2200      	movs	r2, #0
 8000768:	f8c8 100c 	str.w	r1, [r8, #12]
 800076c:	498b      	ldr	r1, [pc, #556]	; (800099c <cppmain+0x328>)
 800076e:	f8c8 101c 	str.w	r1, [r8, #28]
 8000772:	f8c8 3000 	str.w	r3, [r8]
 8000776:	f8c8 3004 	str.w	r3, [r8, #4]
 800077a:	f8c8 3024 	str.w	r3, [r8, #36]	; 0x24
 800077e:	f8c8 3018 	str.w	r3, [r8, #24]
 8000782:	f8c8 3014 	str.w	r3, [r8, #20]
 8000786:	f8c8 3020 	str.w	r3, [r8, #32]
 800078a:	6830      	ldr	r0, [r6, #0]
 800078c:	f8c8 4010 	str.w	r4, [r8, #16]
 8000790:	eefa 0a04 	vmov.f32	s1, #164	; 0xc1200000 -10.0
 8000794:	eeb2 0a04 	vmov.f32	s0, #36	; 0x41200000  10.0
 8000798:	4611      	mov	r1, r2
 800079a:	f8c8 2008 	str.w	r2, [r8, #8]
 800079e:	f000 fba5 	bl	8000eec <_ZN7DAC_Dev5SetupEffb>
 80007a2:	6833      	ldr	r3, [r6, #0]
 80007a4:	7f1a      	ldrb	r2, [r3, #28]
 80007a6:	2a00      	cmp	r2, #0
 80007a8:	d0fc      	beq.n	80007a4 <cppmain+0x130>
 80007aa:	2100      	movs	r1, #0
 80007ac:	eefa 0a04 	vmov.f32	s1, #164	; 0xc1200000 -10.0
 80007b0:	eeb2 0a04 	vmov.f32	s0, #36	; 0x41200000  10.0
 80007b4:	f8d9 0000 	ldr.w	r0, [r9]
 80007b8:	f000 fb98 	bl	8000eec <_ZN7DAC_Dev5SetupEffb>
 80007bc:	f8d9 3000 	ldr.w	r3, [r9]
 80007c0:	7f1a      	ldrb	r2, [r3, #28]
 80007c2:	2a00      	cmp	r2, #0
 80007c4:	d0fc      	beq.n	80007c0 <cppmain+0x14c>
 80007c6:	f000 fbf1 	bl	8000fac <_Z12turn_LED1_onv>
 80007ca:	f000 fc07 	bl	8000fdc <_Z12turn_LED3_onv>
 80007ce:	f04f 0b00 	mov.w	fp, #0
 80007d2:	f8df a1dc 	ldr.w	sl, [pc, #476]	; 80009b0 <cppmain+0x33c>
 80007d6:	eddf 9a72 	vldr	s19, [pc, #456]	; 80009a0 <cppmain+0x32c>
 80007da:	ed9f 9a72 	vldr	s18, [pc, #456]	; 80009a4 <cppmain+0x330>
 80007de:	ed9f aa72 	vldr	s20, [pc, #456]	; 80009a8 <cppmain+0x334>
 80007e2:	465e      	mov	r6, fp
 80007e4:	6838      	ldr	r0, [r7, #0]
 80007e6:	f002 ff7f 	bl	80036e8 <___ZN7ADC_Dev4ReadEv_veneer>
 80007ea:	683a      	ldr	r2, [r7, #0]
 80007ec:	7c13      	ldrb	r3, [r2, #16]
 80007ee:	2b00      	cmp	r3, #0
 80007f0:	d0fc      	beq.n	80007ec <cppmain+0x178>
 80007f2:	2e00      	cmp	r6, #0
 80007f4:	f040 8188 	bne.w	8000b08 <cppmain+0x494>
 80007f8:	69d0      	ldr	r0, [r2, #28]
 80007fa:	f002 ff61 	bl	80036c0 <___ZN11ADC_Channel8GetFloatEv_veneer>
 80007fe:	683b      	ldr	r3, [r7, #0]
 8000800:	6a18      	ldr	r0, [r3, #32]
 8000802:	eeb0 8a40 	vmov.f32	s16, s0
 8000806:	f002 ff5b 	bl	80036c0 <___ZN11ADC_Channel8GetFloatEv_veneer>
 800080a:	a817      	add	r0, sp, #92	; 0x5c
 800080c:	eef0 0a40 	vmov.f32	s1, s0
 8000810:	eeb0 0a48 	vmov.f32	s0, s16
 8000814:	f002 ff60 	bl	80036d8 <___ZN12Oscilloscope5InputEff_veneer>
 8000818:	f8d9 0000 	ldr.w	r0, [r9]
 800081c:	7f03      	ldrb	r3, [r0, #28]
 800081e:	2b00      	cmp	r3, #0
 8000820:	d0fc      	beq.n	800081c <cppmain+0x1a8>
 8000822:	f89a 3000 	ldrb.w	r3, [sl]
 8000826:	2b00      	cmp	r3, #0
 8000828:	d0dc      	beq.n	80007e4 <cppmain+0x170>
 800082a:	4b5a      	ldr	r3, [pc, #360]	; (8000994 <cppmain+0x320>)
 800082c:	681c      	ldr	r4, [r3, #0]
 800082e:	68e1      	ldr	r1, [r4, #12]
 8000830:	780b      	ldrb	r3, [r1, #0]
 8000832:	3b11      	subs	r3, #17
 8000834:	2b08      	cmp	r3, #8
 8000836:	d80b      	bhi.n	8000850 <cppmain+0x1dc>
 8000838:	e8df f013 	tbh	[pc, r3, lsl #1]
 800083c:	015b0160 	.word	0x015b0160
 8000840:	00d00125 	.word	0x00d00125
 8000844:	000e00bc 	.word	0x000e00bc
 8000848:	014f0009 	.word	0x014f0009
 800084c:	014b      	.short	0x014b
 800084e:	2600      	movs	r6, #0
 8000850:	2300      	movs	r3, #0
 8000852:	f88a 3000 	strb.w	r3, [sl]
 8000856:	e7c5      	b.n	80007e4 <cppmain+0x170>
 8000858:	79cb      	ldrb	r3, [r1, #7]
 800085a:	688c      	ldr	r4, [r1, #8]
 800085c:	68c8      	ldr	r0, [r1, #12]
 800085e:	784e      	ldrb	r6, [r1, #1]
 8000860:	f88d 6044 	strb.w	r6, [sp, #68]	; 0x44
 8000864:	1cca      	adds	r2, r1, #3
 8000866:	3300      	adds	r3, #0
 8000868:	bf18      	it	ne
 800086a:	2301      	movne	r3, #1
 800086c:	6815      	ldr	r5, [r2, #0]
 800086e:	690a      	ldr	r2, [r1, #16]
 8000870:	7889      	ldrb	r1, [r1, #2]
 8000872:	f88d 1045 	strb.w	r1, [sp, #69]	; 0x45
 8000876:	9513      	str	r5, [sp, #76]	; 0x4c
 8000878:	f88d 3046 	strb.w	r3, [sp, #70]	; 0x46
 800087c:	9414      	str	r4, [sp, #80]	; 0x50
 800087e:	9015      	str	r0, [sp, #84]	; 0x54
 8000880:	9216      	str	r2, [sp, #88]	; 0x58
 8000882:	f89d 0045 	ldrb.w	r0, [sp, #69]	; 0x45
 8000886:	4c43      	ldr	r4, [pc, #268]	; (8000994 <cppmain+0x320>)
 8000888:	00c0      	lsls	r0, r0, #3
 800088a:	f002 fd8b 	bl	80033a4 <_Znaj>
 800088e:	4605      	mov	r5, r0
 8000890:	9008      	str	r0, [sp, #32]
 8000892:	f89d 0045 	ldrb.w	r0, [sp, #69]	; 0x45
 8000896:	00c0      	lsls	r0, r0, #3
 8000898:	f002 fd84 	bl	80033a4 <_Znaj>
 800089c:	f89d 3045 	ldrb.w	r3, [sp, #69]	; 0x45
 80008a0:	900a      	str	r0, [sp, #40]	; 0x28
 80008a2:	4602      	mov	r2, r0
 80008a4:	4629      	mov	r1, r5
 80008a6:	6820      	ldr	r0, [r4, #0]
 80008a8:	00db      	lsls	r3, r3, #3
 80008aa:	f002 ff21 	bl	80036f0 <___ZN11RaspberryPi8TransferEPhS0_m_veneer>
 80008ae:	6822      	ldr	r2, [r4, #0]
 80008b0:	7a93      	ldrb	r3, [r2, #10]
 80008b2:	f003 06ff 	and.w	r6, r3, #255	; 0xff
 80008b6:	2b00      	cmp	r3, #0
 80008b8:	d0fa      	beq.n	80008b0 <cppmain+0x23c>
 80008ba:	2020      	movs	r0, #32
 80008bc:	f002 fd76 	bl	80033ac <_Znwj>
 80008c0:	4604      	mov	r4, r0
 80008c2:	9006      	str	r0, [sp, #24]
 80008c4:	f44f 7000 	mov.w	r0, #512	; 0x200
 80008c8:	f002 fd70 	bl	80033ac <_Znwj>
 80008cc:	f89d 2045 	ldrb.w	r2, [sp, #69]	; 0x45
 80008d0:	4603      	mov	r3, r0
 80008d2:	f503 7100 	add.w	r1, r3, #512	; 0x200
 80008d6:	f104 000c 	add.w	r0, r4, #12
 80008da:	60e3      	str	r3, [r4, #12]
 80008dc:	9005      	str	r0, [sp, #20]
 80008de:	9107      	str	r1, [sp, #28]
 80008e0:	2a00      	cmp	r2, #0
 80008e2:	f000 828d 	beq.w	8000e00 <cppmain+0x78c>
 80008e6:	9c08      	ldr	r4, [sp, #32]
 80008e8:	930e      	str	r3, [sp, #56]	; 0x38
 80008ea:	4602      	mov	r2, r0
 80008ec:	2508      	movs	r5, #8
 80008ee:	e9cd 680c 	strd	r6, r8, [sp, #48]	; 0x30
 80008f2:	9505      	str	r5, [sp, #20]
 80008f4:	46a3      	mov	fp, r4
 80008f6:	4618      	mov	r0, r3
 80008f8:	460c      	mov	r4, r1
 80008fa:	2500      	movs	r5, #0
 80008fc:	4690      	mov	r8, r2
 80008fe:	461e      	mov	r6, r3
 8000900:	4611      	mov	r1, r2
 8000902:	e00e      	b.n	8000922 <cppmain+0x2ae>
 8000904:	b11e      	cbz	r6, 800090e <cppmain+0x29a>
 8000906:	edc6 8a00 	vstr	s17, [r6]
 800090a:	ed86 8a01 	vstr	s16, [r6, #4]
 800090e:	3608      	adds	r6, #8
 8000910:	3501      	adds	r5, #1
 8000912:	f89d 2045 	ldrb.w	r2, [sp, #69]	; 0x45
 8000916:	b2ad      	uxth	r5, r5
 8000918:	42aa      	cmp	r2, r5
 800091a:	f10b 0b08 	add.w	fp, fp, #8
 800091e:	f240 810b 	bls.w	8000b38 <cppmain+0x4c4>
 8000922:	f1a4 0208 	sub.w	r2, r4, #8
 8000926:	4296      	cmp	r6, r2
 8000928:	eddb 8a00 	vldr	s17, [fp]
 800092c:	ed9b 8a01 	vldr	s16, [fp, #4]
 8000930:	d1e8      	bne.n	8000904 <cppmain+0x290>
 8000932:	9b06      	ldr	r3, [sp, #24]
 8000934:	eba8 0203 	sub.w	r2, r8, r3
 8000938:	9b05      	ldr	r3, [sp, #20]
 800093a:	eba3 02a2 	sub.w	r2, r3, r2, asr #2
 800093e:	2a01      	cmp	r2, #1
 8000940:	f240 81ee 	bls.w	8000d20 <cppmain+0x6ac>
 8000944:	f44f 7000 	mov.w	r0, #512	; 0x200
 8000948:	9109      	str	r1, [sp, #36]	; 0x24
 800094a:	f002 fd2f 	bl	80033ac <_Znwj>
 800094e:	9909      	ldr	r1, [sp, #36]	; 0x24
 8000950:	f8c8 0004 	str.w	r0, [r8, #4]
 8000954:	b11e      	cbz	r6, 800095e <cppmain+0x2ea>
 8000956:	edc6 8a00 	vstr	s17, [r6]
 800095a:	ed86 8a01 	vstr	s16, [r6, #4]
 800095e:	f108 0804 	add.w	r8, r8, #4
 8000962:	f500 7400 	add.w	r4, r0, #512	; 0x200
 8000966:	4606      	mov	r6, r0
 8000968:	e7d2      	b.n	8000910 <cppmain+0x29c>
 800096a:	bf00      	nop
 800096c:	20000000 	.word	0x20000000
 8000970:	20000678 	.word	0x20000678
 8000974:	08003700 	.word	0x08003700
 8000978:	40020000 	.word	0x40020000
 800097c:	20000704 	.word	0x20000704
 8000980:	2000070c 	.word	0x2000070c
 8000984:	40021800 	.word	0x40021800
 8000988:	40021000 	.word	0x40021000
 800098c:	40021400 	.word	0x40021400
 8000990:	40020c00 	.word	0x40020c00
 8000994:	2000071c 	.word	0x2000071c
 8000998:	3c23d70a 	.word	0x3c23d70a
 800099c:	40a00000 	.word	0x40a00000
 80009a0:	00000000 	.word	0x00000000
 80009a4:	3c23d70a 	.word	0x3c23d70a
 80009a8:	3f666666 	.word	0x3f666666
 80009ac:	20000710 	.word	0x20000710
 80009b0:	20000720 	.word	0x20000720
 80009b4:	1c8b      	adds	r3, r1, #2
 80009b6:	784a      	ldrb	r2, [r1, #1]
 80009b8:	681b      	ldr	r3, [r3, #0]
 80009ba:	f88d 2043 	strb.w	r2, [sp, #67]	; 0x43
 80009be:	9312      	str	r3, [sp, #72]	; 0x48
 80009c0:	f89d 3043 	ldrb.w	r3, [sp, #67]	; 0x43
 80009c4:	ed9d 0a12 	vldr	s0, [sp, #72]	; 0x48
 80009c8:	2b01      	cmp	r3, #1
 80009ca:	bf08      	it	eq
 80009cc:	4b58      	ldreq	r3, [pc, #352]	; (8000b30 <cppmain+0x4bc>)
 80009ce:	eef0 0a49 	vmov.f32	s1, s18
 80009d2:	bf08      	it	eq
 80009d4:	6818      	ldreq	r0, [r3, #0]
 80009d6:	f000 ff11 	bl	80017fc <_Z12Move2VoltageP7DAC_Devff>
 80009da:	e739      	b.n	8000850 <cppmain+0x1dc>
 80009dc:	784c      	ldrb	r4, [r1, #1]
 80009de:	898b      	ldrh	r3, [r1, #12]
 80009e0:	788d      	ldrb	r5, [r1, #2]
 80009e2:	9305      	str	r3, [sp, #20]
 80009e4:	1c23      	adds	r3, r4, #0
 80009e6:	bf18      	it	ne
 80009e8:	2301      	movne	r3, #1
 80009ea:	f891 b003 	ldrb.w	fp, [r1, #3]
 80009ee:	9306      	str	r3, [sp, #24]
 80009f0:	1c2b      	adds	r3, r5, #0
 80009f2:	bf18      	it	ne
 80009f4:	2301      	movne	r3, #1
 80009f6:	f1bb 0f01 	cmp.w	fp, #1
 80009fa:	ed91 8a01 	vldr	s16, [r1, #4]
 80009fe:	9307      	str	r3, [sp, #28]
 8000a00:	bf08      	it	eq
 8000a02:	4b4b      	ldreq	r3, [pc, #300]	; (8000b30 <cppmain+0x4bc>)
 8000a04:	edd1 8a02 	vldr	s17, [r1, #8]
 8000a08:	bf08      	it	eq
 8000a0a:	6818      	ldreq	r0, [r3, #0]
 8000a0c:	eef0 0a49 	vmov.f32	s1, s18
 8000a10:	eeb0 0a48 	vmov.f32	s0, s16
 8000a14:	f000 fef2 	bl	80017fc <_Z12Move2VoltageP7DAC_Devff>
 8000a18:	2c00      	cmp	r4, #0
 8000a1a:	f040 81c7 	bne.w	8000dac <cppmain+0x738>
 8000a1e:	6838      	ldr	r0, [r7, #0]
 8000a20:	2d00      	cmp	r5, #0
 8000a22:	f040 81bb 	bne.w	8000d9c <cppmain+0x728>
 8000a26:	f1bb 0f01 	cmp.w	fp, #1
 8000a2a:	bf08      	it	eq
 8000a2c:	4b40      	ldreq	r3, [pc, #256]	; (8000b30 <cppmain+0x4bc>)
 8000a2e:	9a05      	ldr	r2, [sp, #20]
 8000a30:	bf0c      	ite	eq
 8000a32:	681b      	ldreq	r3, [r3, #0]
 8000a34:	f8d9 3000 	ldrne.w	r3, [r9]
 8000a38:	9200      	str	r2, [sp, #0]
 8000a3a:	eef0 0a68 	vmov.f32	s1, s17
 8000a3e:	eeb0 0a48 	vmov.f32	s0, s16
 8000a42:	e9dd 1206 	ldrd	r1, r2, [sp, #24]
 8000a46:	f000 fe6f 	bl	8001728 <_Z11RecordTraceP7ADC_DevbbP7DAC_Devffm>
 8000a4a:	4683      	mov	fp, r0
 8000a4c:	2c00      	cmp	r4, #0
 8000a4e:	f040 818e 	bne.w	8000d6e <cppmain+0x6fa>
 8000a52:	b135      	cbz	r5, 8000a62 <cppmain+0x3ee>
 8000a54:	683b      	ldr	r3, [r7, #0]
 8000a56:	4621      	mov	r1, r4
 8000a58:	6a18      	ldr	r0, [r3, #32]
 8000a5a:	eeb0 0a4a 	vmov.f32	s0, s20
 8000a5e:	f7ff fdd9 	bl	8000614 <_ZN11ADC_Channel10SetLowPassEbf>
 8000a62:	4b34      	ldr	r3, [pc, #208]	; (8000b34 <cppmain+0x4c0>)
 8000a64:	6818      	ldr	r0, [r3, #0]
 8000a66:	9b05      	ldr	r3, [sp, #20]
 8000a68:	68c1      	ldr	r1, [r0, #12]
 8000a6a:	009b      	lsls	r3, r3, #2
 8000a6c:	465a      	mov	r2, fp
 8000a6e:	f002 fe3f 	bl	80036f0 <___ZN11RaspberryPi8TransferEPhS0_m_veneer>
 8000a72:	4b30      	ldr	r3, [pc, #192]	; (8000b34 <cppmain+0x4c0>)
 8000a74:	681a      	ldr	r2, [r3, #0]
 8000a76:	7a93      	ldrb	r3, [r2, #10]
 8000a78:	2b00      	cmp	r3, #0
 8000a7a:	d0fc      	beq.n	8000a76 <cppmain+0x402>
 8000a7c:	4658      	mov	r0, fp
 8000a7e:	2104      	movs	r1, #4
 8000a80:	f002 fc92 	bl	80033a8 <_ZdlPvj>
 8000a84:	e6e4      	b.n	8000850 <cppmain+0x1dc>
 8000a86:	f000 fac1 	bl	800100c <_Z12turn_LED6_onv>
 8000a8a:	4b2a      	ldr	r3, [pc, #168]	; (8000b34 <cppmain+0x4c0>)
 8000a8c:	6838      	ldr	r0, [r7, #0]
 8000a8e:	681b      	ldr	r3, [r3, #0]
 8000a90:	4d28      	ldr	r5, [pc, #160]	; (8000b34 <cppmain+0x4c0>)
 8000a92:	68db      	ldr	r3, [r3, #12]
 8000a94:	789a      	ldrb	r2, [r3, #2]
 8000a96:	7859      	ldrb	r1, [r3, #1]
 8000a98:	2a01      	cmp	r2, #1
 8000a9a:	bf0a      	itet	eq
 8000a9c:	4b24      	ldreq	r3, [pc, #144]	; (8000b30 <cppmain+0x4bc>)
 8000a9e:	f8d9 2000 	ldrne.w	r2, [r9]
 8000aa2:	681a      	ldreq	r2, [r3, #0]
 8000aa4:	f44f 737a 	mov.w	r3, #1000	; 0x3e8
 8000aa8:	f000 fde8 	bl	800167c <_Z11RecordTraceP7ADC_DevhP7DAC_Devt>
 8000aac:	4604      	mov	r4, r0
 8000aae:	6828      	ldr	r0, [r5, #0]
 8000ab0:	4622      	mov	r2, r4
 8000ab2:	68c1      	ldr	r1, [r0, #12]
 8000ab4:	f44f 637a 	mov.w	r3, #4000	; 0xfa0
 8000ab8:	f002 fe1a 	bl	80036f0 <___ZN11RaspberryPi8TransferEPhS0_m_veneer>
 8000abc:	682a      	ldr	r2, [r5, #0]
 8000abe:	7a93      	ldrb	r3, [r2, #10]
 8000ac0:	2b00      	cmp	r3, #0
 8000ac2:	d0fc      	beq.n	8000abe <cppmain+0x44a>
 8000ac4:	4620      	mov	r0, r4
 8000ac6:	2104      	movs	r1, #4
 8000ac8:	f002 fc6e 	bl	80033a8 <_ZdlPvj>
 8000acc:	f000 fa96 	bl	8000ffc <_Z12turn_LED5_onv>
 8000ad0:	e6be      	b.n	8000850 <cppmain+0x1dc>
 8000ad2:	784b      	ldrb	r3, [r1, #1]
 8000ad4:	f88d 3047 	strb.w	r3, [sp, #71]	; 0x47
 8000ad8:	e6ba      	b.n	8000850 <cppmain+0x1dc>
 8000ada:	6c82      	ldr	r2, [r0, #72]	; 0x48
 8000adc:	f44f 537a 	mov.w	r3, #16000	; 0x3e80
 8000ae0:	4620      	mov	r0, r4
 8000ae2:	f002 fe05 	bl	80036f0 <___ZN11RaspberryPi8TransferEPhS0_m_veneer>
 8000ae6:	4b13      	ldr	r3, [pc, #76]	; (8000b34 <cppmain+0x4c0>)
 8000ae8:	681a      	ldr	r2, [r3, #0]
 8000aea:	7a93      	ldrb	r3, [r2, #10]
 8000aec:	2b00      	cmp	r3, #0
 8000aee:	d0fc      	beq.n	8000aea <cppmain+0x476>
 8000af0:	e6ae      	b.n	8000850 <cppmain+0x1dc>
 8000af2:	3101      	adds	r1, #1
 8000af4:	4640      	mov	r0, r8
 8000af6:	f001 f87f 	bl	8001bf8 <_ZN3PID11SetPIDParamEPf>
 8000afa:	e6a9      	b.n	8000850 <cppmain+0x1dc>
 8000afc:	f8b1 1001 	ldrh.w	r1, [r1, #1]
 8000b00:	a817      	add	r0, sp, #92	; 0x5c
 8000b02:	f001 f873 	bl	8001bec <_ZN12Oscilloscope5SetupEt>
 8000b06:	e6a3      	b.n	8000850 <cppmain+0x1dc>
 8000b08:	6a10      	ldr	r0, [r2, #32]
 8000b0a:	ed98 8a0a 	vldr	s16, [r8, #40]	; 0x28
 8000b0e:	f8d9 4000 	ldr.w	r4, [r9]
 8000b12:	f002 fdd5 	bl	80036c0 <___ZN11ADC_Channel8GetFloatEv_veneer>
 8000b16:	4640      	mov	r0, r8
 8000b18:	eef0 0a40 	vmov.f32	s1, s0
 8000b1c:	eeb0 0a48 	vmov.f32	s0, s16
 8000b20:	f002 fdca 	bl	80036b8 <___ZN3PID17CalculateFeedbackEff_veneer>
 8000b24:	4620      	mov	r0, r4
 8000b26:	f002 fddb 	bl	80036e0 <___ZN7DAC_Dev10WriteFloatEf_veneer>
 8000b2a:	683a      	ldr	r2, [r7, #0]
 8000b2c:	e664      	b.n	80007f8 <cppmain+0x184>
 8000b2e:	bf00      	nop
 8000b30:	2000070c 	.word	0x2000070c
 8000b34:	2000071c 	.word	0x2000071c
 8000b38:	4642      	mov	r2, r8
 8000b3a:	46b3      	mov	fp, r6
 8000b3c:	1a54      	subs	r4, r2, r1
 8000b3e:	f8cd 8024 	str.w	r8, [sp, #36]	; 0x24
 8000b42:	10a4      	asrs	r4, r4, #2
 8000b44:	ebab 0200 	sub.w	r2, fp, r0
 8000b48:	e9dd 830d 	ldrd	r8, r3, [sp, #52]	; 0x34
 8000b4c:	3c01      	subs	r4, #1
 8000b4e:	10d2      	asrs	r2, r2, #3
 8000b50:	9e0c      	ldr	r6, [sp, #48]	; 0x30
 8000b52:	9105      	str	r1, [sp, #20]
 8000b54:	900b      	str	r0, [sp, #44]	; 0x2c
 8000b56:	eb02 1484 	add.w	r4, r2, r4, lsl #6
 8000b5a:	9808      	ldr	r0, [sp, #32]
 8000b5c:	930c      	str	r3, [sp, #48]	; 0x30
 8000b5e:	2104      	movs	r1, #4
 8000b60:	f002 fc22 	bl	80033a8 <_ZdlPvj>
 8000b64:	980a      	ldr	r0, [sp, #40]	; 0x28
 8000b66:	2101      	movs	r1, #1
 8000b68:	f002 fc1e 	bl	80033a8 <_ZdlPvj>
 8000b6c:	9b0b      	ldr	r3, [sp, #44]	; 0x2c
 8000b6e:	f8d9 0000 	ldr.w	r0, [r9]
 8000b72:	2200      	movs	r2, #0
 8000b74:	455b      	cmp	r3, fp
 8000b76:	f04f 0501 	mov.w	r5, #1
 8000b7a:	f8a0 2046 	strh.w	r2, [r0, #70]	; 0x46
 8000b7e:	f880 5044 	strb.w	r5, [r0, #68]	; 0x44
 8000b82:	f8c8 2008 	str.w	r2, [r8, #8]
 8000b86:	bf08      	it	eq
 8000b88:	9a09      	ldreq	r2, [sp, #36]	; 0x24
 8000b8a:	f89d 1046 	ldrb.w	r1, [sp, #70]	; 0x46
 8000b8e:	bf08      	it	eq
 8000b90:	f852 2c04 	ldreq.w	r2, [r2, #-4]
 8000b94:	f8dd e050 	ldr.w	lr, [sp, #80]	; 0x50
 8000b98:	f8dd c054 	ldr.w	ip, [sp, #84]	; 0x54
 8000b9c:	9b0c      	ldr	r3, [sp, #48]	; 0x30
 8000b9e:	edc8 9a00 	vstr	s19, [r8]
 8000ba2:	bf0c      	ite	eq
 8000ba4:	f502 7200 	addeq.w	r2, r2, #512	; 0x200
 8000ba8:	465a      	movne	r2, fp
 8000baa:	edc8 9a01 	vstr	s19, [r8, #4]
 8000bae:	f852 2c04 	ldr.w	r2, [r2, #-4]
 8000bb2:	f8c8 2028 	str.w	r2, [r8, #40]	; 0x28
 8000bb6:	edc8 9a09 	vstr	s19, [r8, #36]	; 0x24
 8000bba:	f888 102c 	strb.w	r1, [r8, #44]	; 0x2c
 8000bbe:	f8c8 e020 	str.w	lr, [r8, #32]
 8000bc2:	f8c8 c01c 	str.w	ip, [r8, #28]
 8000bc6:	ed9d 0a16 	vldr	s0, [sp, #88]	; 0x58
 8000bca:	9308      	str	r3, [sp, #32]
 8000bcc:	eef0 0a49 	vmov.f32	s1, s18
 8000bd0:	f000 fe14 	bl	80017fc <_Z12Move2VoltageP7DAC_Devff>
 8000bd4:	e9dd 2307 	ldrd	r2, r3, [sp, #28]
 8000bd8:	1ad2      	subs	r2, r2, r3
 8000bda:	eb04 02e2 	add.w	r2, r4, r2, asr #3
 8000bde:	0994      	lsrs	r4, r2, #6
 8000be0:	920c      	str	r2, [sp, #48]	; 0x30
 8000be2:	2200      	movs	r2, #0
 8000be4:	1ce0      	adds	r0, r4, #3
 8000be6:	921e      	str	r2, [sp, #120]	; 0x78
 8000be8:	e9cd 2220 	strd	r2, r2, [sp, #128]	; 0x80
 8000bec:	e9cd 2222 	strd	r2, r2, [sp, #136]	; 0x88
 8000bf0:	e9cd 2224 	strd	r2, r2, [sp, #144]	; 0x90
 8000bf4:	e9cd 2226 	strd	r2, r2, [sp, #152]	; 0x98
 8000bf8:	f8d9 2000 	ldr.w	r2, [r9]
 8000bfc:	9208      	str	r2, [sp, #32]
 8000bfe:	2808      	cmp	r0, #8
 8000c00:	683a      	ldr	r2, [r7, #0]
 8000c02:	920a      	str	r2, [sp, #40]	; 0x28
 8000c04:	f104 0401 	add.w	r4, r4, #1
 8000c08:	f200 8087 	bhi.w	8000d1a <cppmain+0x6a6>
 8000c0c:	2208      	movs	r2, #8
 8000c0e:	921f      	str	r2, [sp, #124]	; 0x7c
 8000c10:	2020      	movs	r0, #32
 8000c12:	930f      	str	r3, [sp, #60]	; 0x3c
 8000c14:	f002 fbca 	bl	80033ac <_Znwj>
 8000c18:	9a1f      	ldr	r2, [sp, #124]	; 0x7c
 8000c1a:	900d      	str	r0, [sp, #52]	; 0x34
 8000c1c:	1b12      	subs	r2, r2, r4
 8000c1e:	0852      	lsrs	r2, r2, #1
 8000c20:	eb00 0582 	add.w	r5, r0, r2, lsl #2
 8000c24:	eb05 0484 	add.w	r4, r5, r4, lsl #2
 8000c28:	42a5      	cmp	r5, r4
 8000c2a:	901e      	str	r0, [sp, #120]	; 0x78
 8000c2c:	920e      	str	r2, [sp, #56]	; 0x38
 8000c2e:	950b      	str	r5, [sp, #44]	; 0x2c
 8000c30:	9b0f      	ldr	r3, [sp, #60]	; 0x3c
 8000c32:	d209      	bcs.n	8000c48 <cppmain+0x5d4>
 8000c34:	f44f 7000 	mov.w	r0, #512	; 0x200
 8000c38:	f002 fbb8 	bl	80033ac <_Znwj>
 8000c3c:	f845 0b04 	str.w	r0, [r5], #4
 8000c40:	42ac      	cmp	r4, r5
 8000c42:	d8f7      	bhi.n	8000c34 <cppmain+0x5c0>
 8000c44:	9b0f      	ldr	r3, [sp, #60]	; 0x3c
 8000c46:	9d0b      	ldr	r5, [sp, #44]	; 0x2c
 8000c48:	f854 cc04 	ldr.w	ip, [r4, #-4]
 8000c4c:	e9dd 210d 	ldrd	r2, r1, [sp, #52]	; 0x34
 8000c50:	f852 2021 	ldr.w	r2, [r2, r1, lsl #2]
 8000c54:	990c      	ldr	r1, [sp, #48]	; 0x30
 8000c56:	9221      	str	r2, [sp, #132]	; 0x84
 8000c58:	f001 013f 	and.w	r1, r1, #63	; 0x3f
 8000c5c:	f50c 7e00 	add.w	lr, ip, #512	; 0x200
 8000c60:	eb0c 01c1 	add.w	r1, ip, r1, lsl #3
 8000c64:	3c04      	subs	r4, #4
 8000c66:	f502 7000 	add.w	r0, r2, #512	; 0x200
 8000c6a:	e9cd e426 	strd	lr, r4, [sp, #152]	; 0x98
 8000c6e:	e9cd 1c24 	strd	r1, ip, [sp, #144]	; 0x90
 8000c72:	9c05      	ldr	r4, [sp, #20]
 8000c74:	f8dd c01c 	ldr.w	ip, [sp, #28]
 8000c78:	9220      	str	r2, [sp, #128]	; 0x80
 8000c7a:	e9cd 0522 	strd	r0, r5, [sp, #136]	; 0x88
 8000c7e:	46ae      	mov	lr, r5
 8000c80:	4605      	mov	r5, r0
 8000c82:	455b      	cmp	r3, fp
 8000c84:	d010      	beq.n	8000ca8 <cppmain+0x634>
 8000c86:	b11a      	cbz	r2, 8000c90 <cppmain+0x61c>
 8000c88:	e893 0003 	ldmia.w	r3, {r0, r1}
 8000c8c:	e882 0003 	stmia.w	r2, {r0, r1}
 8000c90:	3308      	adds	r3, #8
 8000c92:	459c      	cmp	ip, r3
 8000c94:	d034      	beq.n	8000d00 <cppmain+0x68c>
 8000c96:	3208      	adds	r2, #8
 8000c98:	4295      	cmp	r5, r2
 8000c9a:	d1f2      	bne.n	8000c82 <cppmain+0x60e>
 8000c9c:	f85e 2f04 	ldr.w	r2, [lr, #4]!
 8000ca0:	f502 7500 	add.w	r5, r2, #512	; 0x200
 8000ca4:	455b      	cmp	r3, fp
 8000ca6:	d1ee      	bne.n	8000c86 <cppmain+0x612>
 8000ca8:	9808      	ldr	r0, [sp, #32]
 8000caa:	ed9d 0a13 	vldr	s0, [sp, #76]	; 0x4c
 8000cae:	990a      	ldr	r1, [sp, #40]	; 0x28
 8000cb0:	aa1e      	add	r2, sp, #120	; 0x78
 8000cb2:	f000 fdeb 	bl	800188c <_Z7Go2LockP7DAC_DevP7ADC_DevSt5queueI8WaypointSt5dequeIS4_SaIS4_EEEf>
 8000cb6:	981e      	ldr	r0, [sp, #120]	; 0x78
 8000cb8:	b168      	cbz	r0, 8000cd6 <cppmain+0x662>
 8000cba:	9c27      	ldr	r4, [sp, #156]	; 0x9c
 8000cbc:	9d23      	ldr	r5, [sp, #140]	; 0x8c
 8000cbe:	3404      	adds	r4, #4
 8000cc0:	42a5      	cmp	r5, r4
 8000cc2:	d206      	bcs.n	8000cd2 <cppmain+0x65e>
 8000cc4:	f855 0b04 	ldr.w	r0, [r5], #4
 8000cc8:	f002 fb8a 	bl	80033e0 <_ZdlPv>
 8000ccc:	42ac      	cmp	r4, r5
 8000cce:	d8f9      	bhi.n	8000cc4 <cppmain+0x650>
 8000cd0:	981e      	ldr	r0, [sp, #120]	; 0x78
 8000cd2:	f002 fb85 	bl	80033e0 <_ZdlPv>
 8000cd6:	f8d9 3000 	ldr.w	r3, [r9]
 8000cda:	9c09      	ldr	r4, [sp, #36]	; 0x24
 8000cdc:	6c1b      	ldr	r3, [r3, #64]	; 0x40
 8000cde:	f8c8 3024 	str.w	r3, [r8, #36]	; 0x24
 8000ce2:	9b05      	ldr	r3, [sp, #20]
 8000ce4:	3404      	adds	r4, #4
 8000ce6:	42a3      	cmp	r3, r4
 8000ce8:	d206      	bcs.n	8000cf8 <cppmain+0x684>
 8000cea:	461d      	mov	r5, r3
 8000cec:	f855 0b04 	ldr.w	r0, [r5], #4
 8000cf0:	f002 fb76 	bl	80033e0 <_ZdlPv>
 8000cf4:	42ac      	cmp	r4, r5
 8000cf6:	d8f9      	bhi.n	8000cec <cppmain+0x678>
 8000cf8:	9806      	ldr	r0, [sp, #24]
 8000cfa:	f002 fb71 	bl	80033e0 <_ZdlPv>
 8000cfe:	e5a7      	b.n	8000850 <cppmain+0x1dc>
 8000d00:	6863      	ldr	r3, [r4, #4]
 8000d02:	3208      	adds	r2, #8
 8000d04:	4295      	cmp	r5, r2
 8000d06:	f104 0404 	add.w	r4, r4, #4
 8000d0a:	f503 7c00 	add.w	ip, r3, #512	; 0x200
 8000d0e:	d1b8      	bne.n	8000c82 <cppmain+0x60e>
 8000d10:	f85e 2f04 	ldr.w	r2, [lr, #4]!
 8000d14:	f502 7500 	add.w	r5, r2, #512	; 0x200
 8000d18:	e7c4      	b.n	8000ca4 <cppmain+0x630>
 8000d1a:	901f      	str	r0, [sp, #124]	; 0x7c
 8000d1c:	0080      	lsls	r0, r0, #2
 8000d1e:	e778      	b.n	8000c12 <cppmain+0x59e>
 8000d20:	eba8 0201 	sub.w	r2, r8, r1
 8000d24:	1092      	asrs	r2, r2, #2
 8000d26:	1c53      	adds	r3, r2, #1
 8000d28:	9307      	str	r3, [sp, #28]
 8000d2a:	9b05      	ldr	r3, [sp, #20]
 8000d2c:	3202      	adds	r2, #2
 8000d2e:	ebb3 0f42 	cmp.w	r3, r2, lsl #1
 8000d32:	d943      	bls.n	8000dbc <cppmain+0x748>
 8000d34:	1a9c      	subs	r4, r3, r2
 8000d36:	9b06      	ldr	r3, [sp, #24]
 8000d38:	0864      	lsrs	r4, r4, #1
 8000d3a:	eb03 0484 	add.w	r4, r3, r4, lsl #2
 8000d3e:	f108 0804 	add.w	r8, r8, #4
 8000d42:	42a1      	cmp	r1, r4
 8000d44:	eba8 0201 	sub.w	r2, r8, r1
 8000d48:	d965      	bls.n	8000e16 <cppmain+0x7a2>
 8000d4a:	4588      	cmp	r8, r1
 8000d4c:	d05e      	beq.n	8000e0c <cppmain+0x798>
 8000d4e:	4620      	mov	r0, r4
 8000d50:	f002 fb8c 	bl	800346c <memmove>
 8000d54:	4621      	mov	r1, r4
 8000d56:	9b07      	ldr	r3, [sp, #28]
 8000d58:	680a      	ldr	r2, [r1, #0]
 8000d5a:	f103 4880 	add.w	r8, r3, #1073741824	; 0x40000000
 8000d5e:	f108 38ff 	add.w	r8, r8, #4294967295
 8000d62:	f502 7300 	add.w	r3, r2, #512	; 0x200
 8000d66:	eb01 0888 	add.w	r8, r1, r8, lsl #2
 8000d6a:	9307      	str	r3, [sp, #28]
 8000d6c:	e5ea      	b.n	8000944 <cppmain+0x2d0>
 8000d6e:	683b      	ldr	r3, [r7, #0]
 8000d70:	eeb0 0a4a 	vmov.f32	s0, s20
 8000d74:	69d8      	ldr	r0, [r3, #28]
 8000d76:	2100      	movs	r1, #0
 8000d78:	f7ff fc4c 	bl	8000614 <_ZN11ADC_Channel10SetLowPassEbf>
 8000d7c:	2d00      	cmp	r5, #0
 8000d7e:	f43f ae70 	beq.w	8000a62 <cppmain+0x3ee>
 8000d82:	683b      	ldr	r3, [r7, #0]
 8000d84:	2100      	movs	r1, #0
 8000d86:	6a18      	ldr	r0, [r3, #32]
 8000d88:	eeb0 0a4a 	vmov.f32	s0, s20
 8000d8c:	f7ff fc42 	bl	8000614 <_ZN11ADC_Channel10SetLowPassEbf>
 8000d90:	4b27      	ldr	r3, [pc, #156]	; (8000e30 <cppmain+0x7bc>)
 8000d92:	6818      	ldr	r0, [r3, #0]
 8000d94:	9b05      	ldr	r3, [sp, #20]
 8000d96:	68c1      	ldr	r1, [r0, #12]
 8000d98:	00db      	lsls	r3, r3, #3
 8000d9a:	e667      	b.n	8000a6c <cppmain+0x3f8>
 8000d9c:	6a00      	ldr	r0, [r0, #32]
 8000d9e:	eeb0 0a4a 	vmov.f32	s0, s20
 8000da2:	2101      	movs	r1, #1
 8000da4:	f7ff fc36 	bl	8000614 <_ZN11ADC_Channel10SetLowPassEbf>
 8000da8:	6838      	ldr	r0, [r7, #0]
 8000daa:	e63c      	b.n	8000a26 <cppmain+0x3b2>
 8000dac:	683b      	ldr	r3, [r7, #0]
 8000dae:	eeb0 0a4a 	vmov.f32	s0, s20
 8000db2:	69d8      	ldr	r0, [r3, #28]
 8000db4:	2101      	movs	r1, #1
 8000db6:	f7ff fc2d 	bl	8000614 <_ZN11ADC_Channel10SetLowPassEbf>
 8000dba:	e630      	b.n	8000a1e <cppmain+0x3aa>
 8000dbc:	b343      	cbz	r3, 8000e10 <cppmain+0x79c>
 8000dbe:	005b      	lsls	r3, r3, #1
 8000dc0:	3302      	adds	r3, #2
 8000dc2:	f1b3 4f80 	cmp.w	r3, #1073741824	; 0x40000000
 8000dc6:	9305      	str	r3, [sp, #20]
 8000dc8:	d22f      	bcs.n	8000e2a <cppmain+0x7b6>
 8000dca:	0098      	lsls	r0, r3, #2
 8000dcc:	910b      	str	r1, [sp, #44]	; 0x2c
 8000dce:	9209      	str	r2, [sp, #36]	; 0x24
 8000dd0:	f002 faec 	bl	80033ac <_Znwj>
 8000dd4:	9b05      	ldr	r3, [sp, #20]
 8000dd6:	9a09      	ldr	r2, [sp, #36]	; 0x24
 8000dd8:	990b      	ldr	r1, [sp, #44]	; 0x2c
 8000dda:	1a9a      	subs	r2, r3, r2
 8000ddc:	4604      	mov	r4, r0
 8000dde:	0850      	lsrs	r0, r2, #1
 8000de0:	f108 0204 	add.w	r2, r8, #4
 8000de4:	428a      	cmp	r2, r1
 8000de6:	eb04 0880 	add.w	r8, r4, r0, lsl #2
 8000dea:	d003      	beq.n	8000df4 <cppmain+0x780>
 8000dec:	1a52      	subs	r2, r2, r1
 8000dee:	4640      	mov	r0, r8
 8000df0:	f002 fb3c 	bl	800346c <memmove>
 8000df4:	9806      	ldr	r0, [sp, #24]
 8000df6:	f002 faf3 	bl	80033e0 <_ZdlPv>
 8000dfa:	9406      	str	r4, [sp, #24]
 8000dfc:	4641      	mov	r1, r8
 8000dfe:	e7aa      	b.n	8000d56 <cppmain+0x6e2>
 8000e00:	9009      	str	r0, [sp, #36]	; 0x24
 8000e02:	930b      	str	r3, [sp, #44]	; 0x2c
 8000e04:	469b      	mov	fp, r3
 8000e06:	f06f 043f 	mvn.w	r4, #63	; 0x3f
 8000e0a:	e6a6      	b.n	8000b5a <cppmain+0x4e6>
 8000e0c:	4621      	mov	r1, r4
 8000e0e:	e7a2      	b.n	8000d56 <cppmain+0x6e2>
 8000e10:	2303      	movs	r3, #3
 8000e12:	9305      	str	r3, [sp, #20]
 8000e14:	e7d9      	b.n	8000dca <cppmain+0x756>
 8000e16:	4588      	cmp	r8, r1
 8000e18:	d0f8      	beq.n	8000e0c <cppmain+0x798>
 8000e1a:	9b07      	ldr	r3, [sp, #28]
 8000e1c:	ebc2 0083 	rsb	r0, r2, r3, lsl #2
 8000e20:	4420      	add	r0, r4
 8000e22:	f002 fb23 	bl	800346c <memmove>
 8000e26:	4621      	mov	r1, r4
 8000e28:	e795      	b.n	8000d56 <cppmain+0x6e2>
 8000e2a:	f002 fadb 	bl	80033e4 <_ZSt17__throw_bad_allocv>
 8000e2e:	bf00      	nop
 8000e30:	2000071c 	.word	0x2000071c

08000e34 <_GLOBAL__sub_I__Z10SineSignalffm>:
 8000e34:	b508      	push	{r3, lr}
 8000e36:	200a      	movs	r0, #10
 8000e38:	f002 fab8 	bl	80033ac <_Znwj>
 8000e3c:	4b01      	ldr	r3, [pc, #4]	; (8000e44 <_GLOBAL__sub_I__Z10SineSignalffm+0x10>)
 8000e3e:	6018      	str	r0, [r3, #0]
 8000e40:	bd08      	pop	{r3, pc}
 8000e42:	bf00      	nop
 8000e44:	20000714 	.word	0x20000714

08000e48 <_ZN7DAC_DevC1EhhhP12GPIO_TypeDeftS1_t>:
 8000e48:	e92d 4ff0 	stmdb	sp!, {r4, r5, r6, r7, r8, r9, sl, fp, lr}
 8000e4c:	4604      	mov	r4, r0
 8000e4e:	b085      	sub	sp, #20
 8000e50:	f04f 0a00 	mov.w	sl, #0
 8000e54:	f44f 707a 	mov.w	r0, #1000	; 0x3e8
 8000e58:	f8a4 0058 	strh.w	r0, [r4, #88]	; 0x58
 8000e5c:	f884 a044 	strb.w	sl, [r4, #68]	; 0x44
 8000e60:	f44f 507a 	mov.w	r0, #16000	; 0x3e80
 8000e64:	4690      	mov	r8, r2
 8000e66:	468b      	mov	fp, r1
 8000e68:	461e      	mov	r6, r3
 8000e6a:	f8bd 703c 	ldrh.w	r7, [sp, #60]	; 0x3c
 8000e6e:	f8bd 9044 	ldrh.w	r9, [sp, #68]	; 0x44
 8000e72:	f002 fa97 	bl	80033a4 <_Znaj>
 8000e76:	9b0e      	ldr	r3, [sp, #56]	; 0x38
 8000e78:	6023      	str	r3, [r4, #0]
 8000e7a:	9b10      	ldr	r3, [sp, #64]	; 0x40
 8000e7c:	60a3      	str	r3, [r4, #8]
 8000e7e:	64a0      	str	r0, [r4, #72]	; 0x48
 8000e80:	80a7      	strh	r7, [r4, #4]
 8000e82:	f8a4 900c 	strh.w	r9, [r4, #12]
 8000e86:	2003      	movs	r0, #3
 8000e88:	f002 fa8c 	bl	80033a4 <_Znaj>
 8000e8c:	2501      	movs	r5, #1
 8000e8e:	2100      	movs	r1, #0
 8000e90:	f8df c054 	ldr.w	ip, [pc, #84]	; 8000ee8 <_ZN7DAC_DevC1EhhhP12GPIO_TypeDeftS1_t+0xa0>
 8000e94:	64e0      	str	r0, [r4, #76]	; 0x4c
 8000e96:	f884 a05a 	strb.w	sl, [r4, #90]	; 0x5a
 8000e9a:	f8c4 c010 	str.w	ip, [r4, #16]
 8000e9e:	7725      	strb	r5, [r4, #28]
 8000ea0:	6561      	str	r1, [r4, #84]	; 0x54
 8000ea2:	6521      	str	r1, [r4, #80]	; 0x50
 8000ea4:	6421      	str	r1, [r4, #64]	; 0x40
 8000ea6:	201c      	movs	r0, #28
 8000ea8:	f002 fa80 	bl	80033ac <_Znwj>
 8000eac:	f04f 0c02 	mov.w	ip, #2
 8000eb0:	230a      	movs	r3, #10
 8000eb2:	461a      	mov	r2, r3
 8000eb4:	f8cd c008 	str.w	ip, [sp, #8]
 8000eb8:	4682      	mov	sl, r0
 8000eba:	4659      	mov	r1, fp
 8000ebc:	9601      	str	r6, [sp, #4]
 8000ebe:	f8cd 8000 	str.w	r8, [sp]
 8000ec2:	f000 fd51 	bl	8001968 <_ZN15SPI_DMA_HandlerC1Ehhhhhm>
 8000ec6:	4649      	mov	r1, r9
 8000ec8:	9810      	ldr	r0, [sp, #64]	; 0x40
 8000eca:	f8c4 a028 	str.w	sl, [r4, #40]	; 0x28
 8000ece:	462a      	mov	r2, r5
 8000ed0:	f001 fd36 	bl	8002940 <HAL_GPIO_WritePin>
 8000ed4:	980e      	ldr	r0, [sp, #56]	; 0x38
 8000ed6:	462a      	mov	r2, r5
 8000ed8:	4639      	mov	r1, r7
 8000eda:	f001 fd31 	bl	8002940 <HAL_GPIO_WritePin>
 8000ede:	4620      	mov	r0, r4
 8000ee0:	b005      	add	sp, #20
 8000ee2:	e8bd 8ff0 	ldmia.w	sp!, {r4, r5, r6, r7, r8, r9, sl, fp, pc}
 8000ee6:	bf00      	nop
 8000ee8:	47200000 	.word	0x47200000

08000eec <_ZN7DAC_Dev5SetupEffb>:
 8000eec:	ed9f 7a2d 	vldr	s14, [pc, #180]	; 8000fa4 <_ZN7DAC_Dev5SetupEffb+0xb8>
 8000ef0:	eddf 7a2d 	vldr	s15, [pc, #180]	; 8000fa8 <_ZN7DAC_Dev5SetupEffb+0xbc>
 8000ef4:	7f03      	ldrb	r3, [r0, #28]
 8000ef6:	7741      	strb	r1, [r0, #29]
 8000ef8:	ee70 6a60 	vsub.f32	s13, s0, s1
 8000efc:	eef6 5a00 	vmov.f32	s11, #96	; 0x3f000000  0.5
 8000f00:	ee87 6a26 	vdiv.f32	s12, s14, s13
 8000f04:	ee30 7a20 	vadd.f32	s14, s0, s1
 8000f08:	ee66 7aa7 	vmul.f32	s15, s13, s15
 8000f0c:	ee27 7a25 	vmul.f32	s14, s14, s11
 8000f10:	ed80 0a0e 	vstr	s0, [r0, #56]	; 0x38
 8000f14:	edc0 0a0f 	vstr	s1, [r0, #60]	; 0x3c
 8000f18:	ed80 7a06 	vstr	s14, [r0, #24]
 8000f1c:	edc0 7a05 	vstr	s15, [r0, #20]
 8000f20:	ed80 6a04 	vstr	s12, [r0, #16]
 8000f24:	b903      	cbnz	r3, 8000f28 <_ZN7DAC_Dev5SetupEffb+0x3c>
 8000f26:	4770      	bx	lr
 8000f28:	8882      	ldrh	r2, [r0, #4]
 8000f2a:	6801      	ldr	r1, [r0, #0]
 8000f2c:	eef2 7a04 	vmov.f32	s15, #36	; 0x41200000  10.0
 8000f30:	eef4 6ae7 	vcmpe.f32	s13, s15
 8000f34:	0412      	lsls	r2, r2, #16
 8000f36:	2300      	movs	r3, #0
 8000f38:	eef1 fa10 	vmrs	APSR_nzcv, fpscr
 8000f3c:	b410      	push	{r4}
 8000f3e:	7703      	strb	r3, [r0, #28]
 8000f40:	618a      	str	r2, [r1, #24]
 8000f42:	d50f      	bpl.n	8000f64 <_ZN7DAC_Dev5SetupEffb+0x78>
 8000f44:	2402      	movs	r4, #2
 8000f46:	6cc2      	ldr	r2, [r0, #76]	; 0x4c
 8000f48:	2120      	movs	r1, #32
 8000f4a:	7011      	strb	r1, [r2, #0]
 8000f4c:	6cc2      	ldr	r2, [r0, #76]	; 0x4c
 8000f4e:	7053      	strb	r3, [r2, #1]
 8000f50:	6cc3      	ldr	r3, [r0, #76]	; 0x4c
 8000f52:	709c      	strb	r4, [r3, #2]
 8000f54:	6cc2      	ldr	r2, [r0, #76]	; 0x4c
 8000f56:	f85d 4b04 	ldr.w	r4, [sp], #4
 8000f5a:	6a80      	ldr	r0, [r0, #40]	; 0x28
 8000f5c:	2303      	movs	r3, #3
 8000f5e:	2100      	movs	r1, #0
 8000f60:	f002 bbca 	b.w	80036f8 <___ZN15SPI_DMA_Handler8TransferEPhS0_t_veneer>
 8000f64:	eef2 7a08 	vmov.f32	s15, #40	; 0x41400000  12.0
 8000f68:	eef4 6ae7 	vcmpe.f32	s13, s15
 8000f6c:	eef1 fa10 	vmrs	APSR_nzcv, fpscr
 8000f70:	d409      	bmi.n	8000f86 <_ZN7DAC_Dev5SetupEffb+0x9a>
 8000f72:	eef3 7a00 	vmov.f32	s15, #48	; 0x41800000  16.0
 8000f76:	eef4 6ae7 	vcmpe.f32	s13, s15
 8000f7a:	eef1 fa10 	vmrs	APSR_nzcv, fpscr
 8000f7e:	d505      	bpl.n	8000f8c <_ZN7DAC_Dev5SetupEffb+0xa0>
 8000f80:	2482      	movs	r4, #130	; 0x82
 8000f82:	2302      	movs	r3, #2
 8000f84:	e7df      	b.n	8000f46 <_ZN7DAC_Dev5SetupEffb+0x5a>
 8000f86:	2442      	movs	r4, #66	; 0x42
 8000f88:	2302      	movs	r3, #2
 8000f8a:	e7dc      	b.n	8000f46 <_ZN7DAC_Dev5SetupEffb+0x5a>
 8000f8c:	eef3 7a03 	vmov.f32	s15, #51	; 0x41980000  19.0
 8000f90:	eef4 6ae7 	vcmpe.f32	s13, s15
 8000f94:	eef1 fa10 	vmrs	APSR_nzcv, fpscr
 8000f98:	bf4b      	itete	mi
 8000f9a:	24c2      	movmi	r4, #194	; 0xc2
 8000f9c:	2402      	movpl	r4, #2
 8000f9e:	2302      	movmi	r3, #2
 8000fa0:	2303      	movpl	r3, #3
 8000fa2:	e7d0      	b.n	8000f46 <_ZN7DAC_Dev5SetupEffb+0x5a>
 8000fa4:	497ffff0 	.word	0x497ffff0
 8000fa8:	35800008 	.word	0x35800008

08000fac <_Z12turn_LED1_onv>:
 8000fac:	4b02      	ldr	r3, [pc, #8]	; (8000fb8 <_Z12turn_LED1_onv+0xc>)
 8000fae:	f44f 7280 	mov.w	r2, #256	; 0x100
 8000fb2:	619a      	str	r2, [r3, #24]
 8000fb4:	4770      	bx	lr
 8000fb6:	bf00      	nop
 8000fb8:	40020c00 	.word	0x40020c00

08000fbc <_Z13turn_LED1_offv>:
 8000fbc:	4b02      	ldr	r3, [pc, #8]	; (8000fc8 <_Z13turn_LED1_offv+0xc>)
 8000fbe:	f04f 7280 	mov.w	r2, #16777216	; 0x1000000
 8000fc2:	619a      	str	r2, [r3, #24]
 8000fc4:	4770      	bx	lr
 8000fc6:	bf00      	nop
 8000fc8:	40020c00 	.word	0x40020c00

08000fcc <_Z13turn_LED2_offv>:
 8000fcc:	4b02      	ldr	r3, [pc, #8]	; (8000fd8 <_Z13turn_LED2_offv+0xc>)
 8000fce:	f04f 7200 	mov.w	r2, #33554432	; 0x2000000
 8000fd2:	619a      	str	r2, [r3, #24]
 8000fd4:	4770      	bx	lr
 8000fd6:	bf00      	nop
 8000fd8:	40020c00 	.word	0x40020c00

08000fdc <_Z12turn_LED3_onv>:
 8000fdc:	4b02      	ldr	r3, [pc, #8]	; (8000fe8 <_Z12turn_LED3_onv+0xc>)
 8000fde:	f44f 6280 	mov.w	r2, #1024	; 0x400
 8000fe2:	619a      	str	r2, [r3, #24]
 8000fe4:	4770      	bx	lr
 8000fe6:	bf00      	nop
 8000fe8:	40020c00 	.word	0x40020c00

08000fec <_Z13turn_LED3_offv>:
 8000fec:	4b02      	ldr	r3, [pc, #8]	; (8000ff8 <_Z13turn_LED3_offv+0xc>)
 8000fee:	f04f 6280 	mov.w	r2, #67108864	; 0x4000000
 8000ff2:	619a      	str	r2, [r3, #24]
 8000ff4:	4770      	bx	lr
 8000ff6:	bf00      	nop
 8000ff8:	40020c00 	.word	0x40020c00

08000ffc <_Z12turn_LED5_onv>:
 8000ffc:	4b02      	ldr	r3, [pc, #8]	; (8001008 <_Z12turn_LED5_onv+0xc>)
 8000ffe:	f44f 7280 	mov.w	r2, #256	; 0x100
 8001002:	619a      	str	r2, [r3, #24]
 8001004:	4770      	bx	lr
 8001006:	bf00      	nop
 8001008:	40020000 	.word	0x40020000

0800100c <_Z12turn_LED6_onv>:
 800100c:	4b02      	ldr	r3, [pc, #8]	; (8001018 <_Z12turn_LED6_onv+0xc>)
 800100e:	f44f 7200 	mov.w	r2, #512	; 0x200
 8001012:	619a      	str	r2, [r3, #24]
 8001014:	4770      	bx	lr
 8001016:	bf00      	nop
 8001018:	40020000 	.word	0x40020000

0800101c <SystemClock_Config>:
 800101c:	b530      	push	{r4, r5, lr}
 800101e:	2300      	movs	r3, #0
 8001020:	b095      	sub	sp, #84	; 0x54
 8001022:	e9cd 330a 	strd	r3, r3, [sp, #40]	; 0x28
 8001026:	e9cd 330c 	strd	r3, r3, [sp, #48]	; 0x30
 800102a:	e9cd 3304 	strd	r3, r3, [sp, #16]
 800102e:	e9cd 3306 	strd	r3, r3, [sp, #24]
 8001032:	492b      	ldr	r1, [pc, #172]	; (80010e0 <SystemClock_Config+0xc4>)
 8001034:	9301      	str	r3, [sp, #4]
 8001036:	9303      	str	r3, [sp, #12]
 8001038:	6c08      	ldr	r0, [r1, #64]	; 0x40
 800103a:	4a2a      	ldr	r2, [pc, #168]	; (80010e4 <SystemClock_Config+0xc8>)
 800103c:	f040 5080 	orr.w	r0, r0, #268435456	; 0x10000000
 8001040:	6408      	str	r0, [r1, #64]	; 0x40
 8001042:	6c09      	ldr	r1, [r1, #64]	; 0x40
 8001044:	f001 5180 	and.w	r1, r1, #268435456	; 0x10000000
 8001048:	9101      	str	r1, [sp, #4]
 800104a:	9901      	ldr	r1, [sp, #4]
 800104c:	9302      	str	r3, [sp, #8]
 800104e:	6813      	ldr	r3, [r2, #0]
 8001050:	f443 4340 	orr.w	r3, r3, #49152	; 0xc000
 8001054:	6013      	str	r3, [r2, #0]
 8001056:	6813      	ldr	r3, [r2, #0]
 8001058:	f403 4340 	and.w	r3, r3, #49152	; 0xc000
 800105c:	9302      	str	r3, [sp, #8]
 800105e:	f44f 3280 	mov.w	r2, #65536	; 0x10000
 8001062:	2302      	movs	r3, #2
 8001064:	f44f 0080 	mov.w	r0, #4194304	; 0x400000
 8001068:	2401      	movs	r4, #1
 800106a:	210f      	movs	r1, #15
 800106c:	e9cd 4208 	strd	r4, r2, [sp, #32]
 8001070:	930e      	str	r3, [sp, #56]	; 0x38
 8001072:	22d8      	movs	r2, #216	; 0xd8
 8001074:	9312      	str	r3, [sp, #72]	; 0x48
 8001076:	900f      	str	r0, [sp, #60]	; 0x3c
 8001078:	2304      	movs	r3, #4
 800107a:	a808      	add	r0, sp, #32
 800107c:	9d02      	ldr	r5, [sp, #8]
 800107e:	9313      	str	r3, [sp, #76]	; 0x4c
 8001080:	e9cd 1210 	strd	r1, r2, [sp, #64]	; 0x40
 8001084:	f001 fcaa 	bl	80029dc <HAL_RCC_OscConfig>
 8001088:	bb10      	cbnz	r0, 80010d0 <SystemClock_Config+0xb4>
 800108a:	f001 fc69 	bl	8002960 <HAL_PWREx_EnableOverDrive>
 800108e:	b9c0      	cbnz	r0, 80010c2 <SystemClock_Config+0xa6>
 8001090:	210f      	movs	r1, #15
 8001092:	2502      	movs	r5, #2
 8001094:	2400      	movs	r4, #0
 8001096:	f44f 52a0 	mov.w	r2, #5120	; 0x1400
 800109a:	f44f 5380 	mov.w	r3, #4096	; 0x1000
 800109e:	9103      	str	r1, [sp, #12]
 80010a0:	a803      	add	r0, sp, #12
 80010a2:	2105      	movs	r1, #5
 80010a4:	e9cd 5404 	strd	r5, r4, [sp, #16]
 80010a8:	e9cd 2306 	strd	r2, r3, [sp, #24]
 80010ac:	f001 fe86 	bl	8002dbc <HAL_RCC_ClockConfig>
 80010b0:	b128      	cbz	r0, 80010be <SystemClock_Config+0xa2>
 80010b2:	2201      	movs	r2, #1
 80010b4:	f44f 7180 	mov.w	r1, #256	; 0x100
 80010b8:	480b      	ldr	r0, [pc, #44]	; (80010e8 <SystemClock_Config+0xcc>)
 80010ba:	f001 fc41 	bl	8002940 <HAL_GPIO_WritePin>
 80010be:	b015      	add	sp, #84	; 0x54
 80010c0:	bd30      	pop	{r4, r5, pc}
 80010c2:	2201      	movs	r2, #1
 80010c4:	f44f 7180 	mov.w	r1, #256	; 0x100
 80010c8:	4807      	ldr	r0, [pc, #28]	; (80010e8 <SystemClock_Config+0xcc>)
 80010ca:	f001 fc39 	bl	8002940 <HAL_GPIO_WritePin>
 80010ce:	e7df      	b.n	8001090 <SystemClock_Config+0x74>
 80010d0:	4622      	mov	r2, r4
 80010d2:	f44f 7180 	mov.w	r1, #256	; 0x100
 80010d6:	4804      	ldr	r0, [pc, #16]	; (80010e8 <SystemClock_Config+0xcc>)
 80010d8:	f001 fc32 	bl	8002940 <HAL_GPIO_WritePin>
 80010dc:	e7d5      	b.n	800108a <SystemClock_Config+0x6e>
 80010de:	bf00      	nop
 80010e0:	40023800 	.word	0x40023800
 80010e4:	40007000 	.word	0x40007000
 80010e8:	40020c00 	.word	0x40020c00

080010ec <main>:
 80010ec:	b580      	push	{r7, lr}
 80010ee:	2400      	movs	r4, #0
 80010f0:	b092      	sub	sp, #72	; 0x48
 80010f2:	f001 f8c3 	bl	800227c <HAL_Init>
 80010f6:	f7ff ff91 	bl	800101c <SystemClock_Config>
 80010fa:	e9cd 440d 	strd	r4, r4, [sp, #52]	; 0x34
 80010fe:	e9cd 440f 	strd	r4, r4, [sp, #60]	; 0x3c
 8001102:	4dbf      	ldr	r5, [pc, #764]	; (8001400 <main+0x314>)
 8001104:	9403      	str	r4, [sp, #12]
 8001106:	9411      	str	r4, [sp, #68]	; 0x44
 8001108:	6b2b      	ldr	r3, [r5, #48]	; 0x30
 800110a:	48be      	ldr	r0, [pc, #760]	; (8001404 <main+0x318>)
 800110c:	f043 0310 	orr.w	r3, r3, #16
 8001110:	632b      	str	r3, [r5, #48]	; 0x30
 8001112:	6b2b      	ldr	r3, [r5, #48]	; 0x30
 8001114:	f003 0310 	and.w	r3, r3, #16
 8001118:	9303      	str	r3, [sp, #12]
 800111a:	9b03      	ldr	r3, [sp, #12]
 800111c:	9404      	str	r4, [sp, #16]
 800111e:	6b2b      	ldr	r3, [r5, #48]	; 0x30
 8001120:	f043 0304 	orr.w	r3, r3, #4
 8001124:	632b      	str	r3, [r5, #48]	; 0x30
 8001126:	6b2b      	ldr	r3, [r5, #48]	; 0x30
 8001128:	f003 0304 	and.w	r3, r3, #4
 800112c:	9304      	str	r3, [sp, #16]
 800112e:	9b04      	ldr	r3, [sp, #16]
 8001130:	9405      	str	r4, [sp, #20]
 8001132:	6b2b      	ldr	r3, [r5, #48]	; 0x30
 8001134:	f043 0320 	orr.w	r3, r3, #32
 8001138:	632b      	str	r3, [r5, #48]	; 0x30
 800113a:	6b2b      	ldr	r3, [r5, #48]	; 0x30
 800113c:	f003 0320 	and.w	r3, r3, #32
 8001140:	9305      	str	r3, [sp, #20]
 8001142:	9b05      	ldr	r3, [sp, #20]
 8001144:	9406      	str	r4, [sp, #24]
 8001146:	6b2b      	ldr	r3, [r5, #48]	; 0x30
 8001148:	f043 0380 	orr.w	r3, r3, #128	; 0x80
 800114c:	632b      	str	r3, [r5, #48]	; 0x30
 800114e:	6b2b      	ldr	r3, [r5, #48]	; 0x30
 8001150:	f003 0380 	and.w	r3, r3, #128	; 0x80
 8001154:	9306      	str	r3, [sp, #24]
 8001156:	9b06      	ldr	r3, [sp, #24]
 8001158:	9407      	str	r4, [sp, #28]
 800115a:	6b2b      	ldr	r3, [r5, #48]	; 0x30
 800115c:	f043 0301 	orr.w	r3, r3, #1
 8001160:	632b      	str	r3, [r5, #48]	; 0x30
 8001162:	6b2b      	ldr	r3, [r5, #48]	; 0x30
 8001164:	f003 0301 	and.w	r3, r3, #1
 8001168:	9307      	str	r3, [sp, #28]
 800116a:	9b07      	ldr	r3, [sp, #28]
 800116c:	9408      	str	r4, [sp, #32]
 800116e:	6b2b      	ldr	r3, [r5, #48]	; 0x30
 8001170:	f043 0302 	orr.w	r3, r3, #2
 8001174:	632b      	str	r3, [r5, #48]	; 0x30
 8001176:	6b2b      	ldr	r3, [r5, #48]	; 0x30
 8001178:	f003 0302 	and.w	r3, r3, #2
 800117c:	9308      	str	r3, [sp, #32]
 800117e:	9b08      	ldr	r3, [sp, #32]
 8001180:	9409      	str	r4, [sp, #36]	; 0x24
 8001182:	6b2b      	ldr	r3, [r5, #48]	; 0x30
 8001184:	f043 0308 	orr.w	r3, r3, #8
 8001188:	632b      	str	r3, [r5, #48]	; 0x30
 800118a:	6b2b      	ldr	r3, [r5, #48]	; 0x30
 800118c:	f003 0308 	and.w	r3, r3, #8
 8001190:	9309      	str	r3, [sp, #36]	; 0x24
 8001192:	9b09      	ldr	r3, [sp, #36]	; 0x24
 8001194:	940a      	str	r4, [sp, #40]	; 0x28
 8001196:	6b2b      	ldr	r3, [r5, #48]	; 0x30
 8001198:	f043 0340 	orr.w	r3, r3, #64	; 0x40
 800119c:	632b      	str	r3, [r5, #48]	; 0x30
 800119e:	6b2b      	ldr	r3, [r5, #48]	; 0x30
 80011a0:	f003 0340 	and.w	r3, r3, #64	; 0x40
 80011a4:	930a      	str	r3, [sp, #40]	; 0x28
 80011a6:	4622      	mov	r2, r4
 80011a8:	2104      	movs	r1, #4
 80011aa:	9b0a      	ldr	r3, [sp, #40]	; 0x28
 80011ac:	f001 fbc8 	bl	8002940 <HAL_GPIO_WritePin>
 80011b0:	4622      	mov	r2, r4
 80011b2:	2140      	movs	r1, #64	; 0x40
 80011b4:	4894      	ldr	r0, [pc, #592]	; (8001408 <main+0x31c>)
 80011b6:	f001 fbc3 	bl	8002940 <HAL_GPIO_WritePin>
 80011ba:	4622      	mov	r2, r4
 80011bc:	f44f 7144 	mov.w	r1, #784	; 0x310
 80011c0:	4892      	ldr	r0, [pc, #584]	; (800140c <main+0x320>)
 80011c2:	f001 fbbd 	bl	8002940 <HAL_GPIO_WritePin>
 80011c6:	4622      	mov	r2, r4
 80011c8:	2101      	movs	r1, #1
 80011ca:	4891      	ldr	r0, [pc, #580]	; (8001410 <main+0x324>)
 80011cc:	f001 fbb8 	bl	8002940 <HAL_GPIO_WritePin>
 80011d0:	4622      	mov	r2, r4
 80011d2:	f640 7102 	movw	r1, #3842	; 0xf02
 80011d6:	488f      	ldr	r0, [pc, #572]	; (8001414 <main+0x328>)
 80011d8:	f001 fbb2 	bl	8002940 <HAL_GPIO_WritePin>
 80011dc:	4622      	mov	r2, r4
 80011de:	f44f 6110 	mov.w	r1, #2304	; 0x900
 80011e2:	488d      	ldr	r0, [pc, #564]	; (8001418 <main+0x32c>)
 80011e4:	f001 fbac 	bl	8002940 <HAL_GPIO_WritePin>
 80011e8:	2601      	movs	r6, #1
 80011ea:	2304      	movs	r3, #4
 80011ec:	a90d      	add	r1, sp, #52	; 0x34
 80011ee:	4885      	ldr	r0, [pc, #532]	; (8001404 <main+0x318>)
 80011f0:	e9cd 360d 	strd	r3, r6, [sp, #52]	; 0x34
 80011f4:	2740      	movs	r7, #64	; 0x40
 80011f6:	e9cd 440f 	strd	r4, r4, [sp, #60]	; 0x3c
 80011fa:	f001 fa5d 	bl	80026b8 <HAL_GPIO_Init>
 80011fe:	a90d      	add	r1, sp, #52	; 0x34
 8001200:	4881      	ldr	r0, [pc, #516]	; (8001408 <main+0x31c>)
 8001202:	970d      	str	r7, [sp, #52]	; 0x34
 8001204:	e9cd 640e 	strd	r6, r4, [sp, #56]	; 0x38
 8001208:	9410      	str	r4, [sp, #64]	; 0x40
 800120a:	f001 fa55 	bl	80026b8 <HAL_GPIO_Init>
 800120e:	f44f 7344 	mov.w	r3, #784	; 0x310
 8001212:	a90d      	add	r1, sp, #52	; 0x34
 8001214:	487d      	ldr	r0, [pc, #500]	; (800140c <main+0x320>)
 8001216:	930d      	str	r3, [sp, #52]	; 0x34
 8001218:	e9cd 640e 	strd	r6, r4, [sp, #56]	; 0x38
 800121c:	9410      	str	r4, [sp, #64]	; 0x40
 800121e:	f001 fa4b 	bl	80026b8 <HAL_GPIO_Init>
 8001222:	a90d      	add	r1, sp, #52	; 0x34
 8001224:	487a      	ldr	r0, [pc, #488]	; (8001410 <main+0x324>)
 8001226:	e9cd 660d 	strd	r6, r6, [sp, #52]	; 0x34
 800122a:	e9cd 440f 	strd	r4, r4, [sp, #60]	; 0x3c
 800122e:	f001 fa43 	bl	80026b8 <HAL_GPIO_Init>
 8001232:	4a7a      	ldr	r2, [pc, #488]	; (800141c <main+0x330>)
 8001234:	4876      	ldr	r0, [pc, #472]	; (8001410 <main+0x324>)
 8001236:	920e      	str	r2, [sp, #56]	; 0x38
 8001238:	2302      	movs	r3, #2
 800123a:	a90d      	add	r1, sp, #52	; 0x34
 800123c:	930d      	str	r3, [sp, #52]	; 0x34
 800123e:	930f      	str	r3, [sp, #60]	; 0x3c
 8001240:	f001 fa3a 	bl	80026b8 <HAL_GPIO_Init>
 8001244:	f640 7302 	movw	r3, #3842	; 0xf02
 8001248:	a90d      	add	r1, sp, #52	; 0x34
 800124a:	4872      	ldr	r0, [pc, #456]	; (8001414 <main+0x328>)
 800124c:	930d      	str	r3, [sp, #52]	; 0x34
 800124e:	e9cd 640e 	strd	r6, r4, [sp, #56]	; 0x38
 8001252:	9410      	str	r4, [sp, #64]	; 0x40
 8001254:	f001 fa30 	bl	80026b8 <HAL_GPIO_Init>
 8001258:	f44f 6310 	mov.w	r3, #2304	; 0x900
 800125c:	a90d      	add	r1, sp, #52	; 0x34
 800125e:	486e      	ldr	r0, [pc, #440]	; (8001418 <main+0x32c>)
 8001260:	930d      	str	r3, [sp, #52]	; 0x34
 8001262:	e9cd 640e 	strd	r6, r4, [sp, #56]	; 0x38
 8001266:	9410      	str	r4, [sp, #64]	; 0x40
 8001268:	f001 fa26 	bl	80026b8 <HAL_GPIO_Init>
 800126c:	a90d      	add	r1, sp, #52	; 0x34
 800126e:	4869      	ldr	r0, [pc, #420]	; (8001414 <main+0x328>)
 8001270:	e9cd 760d 	strd	r7, r6, [sp, #52]	; 0x34
 8001274:	e9cd 440f 	strd	r4, r4, [sp, #60]	; 0x3c
 8001278:	f001 fa1e 	bl	80026b8 <HAL_GPIO_Init>
 800127c:	4622      	mov	r2, r4
 800127e:	4621      	mov	r1, r4
 8001280:	2007      	movs	r0, #7
 8001282:	f001 f84b 	bl	800231c <HAL_NVIC_SetPriority>
 8001286:	2007      	movs	r0, #7
 8001288:	f001 f87e 	bl	8002388 <HAL_NVIC_EnableIRQ>
 800128c:	4622      	mov	r2, r4
 800128e:	4621      	mov	r1, r4
 8001290:	2017      	movs	r0, #23
 8001292:	f001 f843 	bl	800231c <HAL_NVIC_SetPriority>
 8001296:	2017      	movs	r0, #23
 8001298:	f001 f876 	bl	8002388 <HAL_NVIC_EnableIRQ>
 800129c:	9401      	str	r4, [sp, #4]
 800129e:	6b2b      	ldr	r3, [r5, #48]	; 0x30
 80012a0:	4f5f      	ldr	r7, [pc, #380]	; (8001420 <main+0x334>)
 80012a2:	f443 0380 	orr.w	r3, r3, #4194304	; 0x400000
 80012a6:	632b      	str	r3, [r5, #48]	; 0x30
 80012a8:	6b2b      	ldr	r3, [r5, #48]	; 0x30
 80012aa:	f403 0380 	and.w	r3, r3, #4194304	; 0x400000
 80012ae:	9301      	str	r3, [sp, #4]
 80012b0:	9b01      	ldr	r3, [sp, #4]
 80012b2:	9402      	str	r4, [sp, #8]
 80012b4:	6b2b      	ldr	r3, [r5, #48]	; 0x30
 80012b6:	f443 1300 	orr.w	r3, r3, #2097152	; 0x200000
 80012ba:	632b      	str	r3, [r5, #48]	; 0x30
 80012bc:	6b2b      	ldr	r3, [r5, #48]	; 0x30
 80012be:	f403 1300 	and.w	r3, r3, #2097152	; 0x200000
 80012c2:	4622      	mov	r2, r4
 80012c4:	4621      	mov	r1, r4
 80012c6:	9302      	str	r3, [sp, #8]
 80012c8:	200e      	movs	r0, #14
 80012ca:	9b02      	ldr	r3, [sp, #8]
 80012cc:	f001 f826 	bl	800231c <HAL_NVIC_SetPriority>
 80012d0:	200e      	movs	r0, #14
 80012d2:	f001 f859 	bl	8002388 <HAL_NVIC_EnableIRQ>
 80012d6:	4622      	mov	r2, r4
 80012d8:	4621      	mov	r1, r4
 80012da:	200f      	movs	r0, #15
 80012dc:	f001 f81e 	bl	800231c <HAL_NVIC_SetPriority>
 80012e0:	200f      	movs	r0, #15
 80012e2:	f001 f851 	bl	8002388 <HAL_NVIC_EnableIRQ>
 80012e6:	4622      	mov	r2, r4
 80012e8:	4621      	mov	r1, r4
 80012ea:	2038      	movs	r0, #56	; 0x38
 80012ec:	f001 f816 	bl	800231c <HAL_NVIC_SetPriority>
 80012f0:	2038      	movs	r0, #56	; 0x38
 80012f2:	f001 f849 	bl	8002388 <HAL_NVIC_EnableIRQ>
 80012f6:	4622      	mov	r2, r4
 80012f8:	4621      	mov	r1, r4
 80012fa:	2039      	movs	r0, #57	; 0x39
 80012fc:	f001 f80e 	bl	800231c <HAL_NVIC_SetPriority>
 8001300:	2039      	movs	r0, #57	; 0x39
 8001302:	f001 f841 	bl	8002388 <HAL_NVIC_EnableIRQ>
 8001306:	4622      	mov	r2, r4
 8001308:	4621      	mov	r1, r4
 800130a:	203a      	movs	r0, #58	; 0x3a
 800130c:	f001 f806 	bl	800231c <HAL_NVIC_SetPriority>
 8001310:	203a      	movs	r0, #58	; 0x3a
 8001312:	f001 f839 	bl	8002388 <HAL_NVIC_EnableIRQ>
 8001316:	4622      	mov	r2, r4
 8001318:	4621      	mov	r1, r4
 800131a:	203b      	movs	r0, #59	; 0x3b
 800131c:	f000 fffe 	bl	800231c <HAL_NVIC_SetPriority>
 8001320:	203b      	movs	r0, #59	; 0x3b
 8001322:	f001 f831 	bl	8002388 <HAL_NVIC_EnableIRQ>
 8001326:	4622      	mov	r2, r4
 8001328:	4621      	mov	r1, r4
 800132a:	203c      	movs	r0, #60	; 0x3c
 800132c:	f000 fff6 	bl	800231c <HAL_NVIC_SetPriority>
 8001330:	203c      	movs	r0, #60	; 0x3c
 8001332:	f001 f829 	bl	8002388 <HAL_NVIC_EnableIRQ>
 8001336:	4622      	mov	r2, r4
 8001338:	4621      	mov	r1, r4
 800133a:	2044      	movs	r0, #68	; 0x44
 800133c:	f000 ffee 	bl	800231c <HAL_NVIC_SetPriority>
 8001340:	2044      	movs	r0, #68	; 0x44
 8001342:	f001 f821 	bl	8002388 <HAL_NVIC_EnableIRQ>
 8001346:	4b37      	ldr	r3, [pc, #220]	; (8001424 <main+0x338>)
 8001348:	f44f 7582 	mov.w	r5, #260	; 0x104
 800134c:	f44f 7100 	mov.w	r1, #512	; 0x200
 8001350:	220a      	movs	r2, #10
 8001352:	4618      	mov	r0, r3
 8001354:	609c      	str	r4, [r3, #8]
 8001356:	e9c3 4403 	strd	r4, r4, [r3, #12]
 800135a:	615c      	str	r4, [r3, #20]
 800135c:	e9c3 4407 	strd	r4, r4, [r3, #28]
 8001360:	e9c3 4409 	strd	r4, r4, [r3, #36]	; 0x24
 8001364:	e9c3 7500 	strd	r7, r5, [r3]
 8001368:	6199      	str	r1, [r3, #24]
 800136a:	62da      	str	r2, [r3, #44]	; 0x2c
 800136c:	f001 fdc0 	bl	8002ef0 <HAL_SPI_Init>
 8001370:	2800      	cmp	r0, #0
 8001372:	f040 8161 	bne.w	8001638 <main+0x54c>
 8001376:	4b2c      	ldr	r3, [pc, #176]	; (8001428 <main+0x33c>)
 8001378:	4a2c      	ldr	r2, [pc, #176]	; (800142c <main+0x340>)
 800137a:	601a      	str	r2, [r3, #0]
 800137c:	f44f 7282 	mov.w	r2, #260	; 0x104
 8001380:	f44f 7400 	mov.w	r4, #512	; 0x200
 8001384:	210a      	movs	r1, #10
 8001386:	605a      	str	r2, [r3, #4]
 8001388:	4618      	mov	r0, r3
 800138a:	2200      	movs	r2, #0
 800138c:	619c      	str	r4, [r3, #24]
 800138e:	62d9      	str	r1, [r3, #44]	; 0x2c
 8001390:	e9c3 2202 	strd	r2, r2, [r3, #8]
 8001394:	e9c3 2204 	strd	r2, r2, [r3, #16]
 8001398:	e9c3 2207 	strd	r2, r2, [r3, #28]
 800139c:	e9c3 2209 	strd	r2, r2, [r3, #36]	; 0x24
 80013a0:	f001 fda6 	bl	8002ef0 <HAL_SPI_Init>
 80013a4:	2800      	cmp	r0, #0
 80013a6:	f040 8140 	bne.w	800162a <main+0x53e>
 80013aa:	4b21      	ldr	r3, [pc, #132]	; (8001430 <main+0x344>)
 80013ac:	4a21      	ldr	r2, [pc, #132]	; (8001434 <main+0x348>)
 80013ae:	601a      	str	r2, [r3, #0]
 80013b0:	f44f 7400 	mov.w	r4, #512	; 0x200
 80013b4:	2200      	movs	r2, #0
 80013b6:	210a      	movs	r1, #10
 80013b8:	4618      	mov	r0, r3
 80013ba:	619c      	str	r4, [r3, #24]
 80013bc:	62d9      	str	r1, [r3, #44]	; 0x2c
 80013be:	e9c3 2201 	strd	r2, r2, [r3, #4]
 80013c2:	e9c3 2203 	strd	r2, r2, [r3, #12]
 80013c6:	615a      	str	r2, [r3, #20]
 80013c8:	e9c3 2208 	strd	r2, r2, [r3, #32]
 80013cc:	629a      	str	r2, [r3, #40]	; 0x28
 80013ce:	f001 fd8f 	bl	8002ef0 <HAL_SPI_Init>
 80013d2:	2800      	cmp	r0, #0
 80013d4:	f040 8122 	bne.w	800161c <main+0x530>
 80013d8:	4b17      	ldr	r3, [pc, #92]	; (8001438 <main+0x34c>)
 80013da:	4a18      	ldr	r2, [pc, #96]	; (800143c <main+0x350>)
 80013dc:	601a      	str	r2, [r3, #0]
 80013de:	f44f 7182 	mov.w	r1, #260	; 0x104
 80013e2:	f44f 7400 	mov.w	r4, #512	; 0x200
 80013e6:	220a      	movs	r2, #10
 80013e8:	6059      	str	r1, [r3, #4]
 80013ea:	619c      	str	r4, [r3, #24]
 80013ec:	2100      	movs	r1, #0
 80013ee:	2401      	movs	r4, #1
 80013f0:	4618      	mov	r0, r3
 80013f2:	62da      	str	r2, [r3, #44]	; 0x2c
 80013f4:	e9c3 1102 	strd	r1, r1, [r3, #8]
 80013f8:	6119      	str	r1, [r3, #16]
 80013fa:	e9c3 1107 	strd	r1, r1, [r3, #28]
 80013fe:	e01f      	b.n	8001440 <main+0x354>
 8001400:	40023800 	.word	0x40023800
 8001404:	40021000 	.word	0x40021000
 8001408:	40021400 	.word	0x40021400
 800140c:	40020000 	.word	0x40020000
 8001410:	40020400 	.word	0x40020400
 8001414:	40020c00 	.word	0x40020c00
 8001418:	40021800 	.word	0x40021800
 800141c:	10310000 	.word	0x10310000
 8001420:	40013000 	.word	0x40013000
 8001424:	20000a94 	.word	0x20000a94
 8001428:	20000734 	.word	0x20000734
 800142c:	40003800 	.word	0x40003800
 8001430:	200009dc 	.word	0x200009dc
 8001434:	40013400 	.word	0x40013400
 8001438:	2000078c 	.word	0x2000078c
 800143c:	40015000 	.word	0x40015000
 8001440:	e9c3 1109 	strd	r1, r1, [r3, #36]	; 0x24
 8001444:	615c      	str	r4, [r3, #20]
 8001446:	f001 fd53 	bl	8002ef0 <HAL_SPI_Init>
 800144a:	2800      	cmp	r0, #0
 800144c:	f040 80df 	bne.w	800160e <main+0x522>
 8001450:	4b7d      	ldr	r3, [pc, #500]	; (8001648 <main+0x55c>)
 8001452:	4a7e      	ldr	r2, [pc, #504]	; (800164c <main+0x560>)
 8001454:	601a      	str	r2, [r3, #0]
 8001456:	f44f 7182 	mov.w	r1, #260	; 0x104
 800145a:	f44f 7400 	mov.w	r4, #512	; 0x200
 800145e:	220a      	movs	r2, #10
 8001460:	6059      	str	r1, [r3, #4]
 8001462:	619c      	str	r4, [r3, #24]
 8001464:	2100      	movs	r1, #0
 8001466:	2401      	movs	r4, #1
 8001468:	4618      	mov	r0, r3
 800146a:	62da      	str	r2, [r3, #44]	; 0x2c
 800146c:	e9c3 1102 	strd	r1, r1, [r3, #8]
 8001470:	6119      	str	r1, [r3, #16]
 8001472:	e9c3 1107 	strd	r1, r1, [r3, #28]
 8001476:	e9c3 1109 	strd	r1, r1, [r3, #36]	; 0x24
 800147a:	615c      	str	r4, [r3, #20]
 800147c:	f001 fd38 	bl	8002ef0 <HAL_SPI_Init>
 8001480:	2800      	cmp	r0, #0
 8001482:	f040 80bd 	bne.w	8001600 <main+0x514>
 8001486:	4a72      	ldr	r2, [pc, #456]	; (8001650 <main+0x564>)
 8001488:	f04f 4380 	mov.w	r3, #1073741824	; 0x40000000
 800148c:	f44f 7161 	mov.w	r1, #900	; 0x384
 8001490:	6013      	str	r3, [r2, #0]
 8001492:	4610      	mov	r0, r2
 8001494:	2300      	movs	r3, #0
 8001496:	60d1      	str	r1, [r2, #12]
 8001498:	6053      	str	r3, [r2, #4]
 800149a:	e9cd 330d 	strd	r3, r3, [sp, #52]	; 0x34
 800149e:	e9cd 330f 	strd	r3, r3, [sp, #60]	; 0x3c
 80014a2:	930b      	str	r3, [sp, #44]	; 0x2c
 80014a4:	6093      	str	r3, [r2, #8]
 80014a6:	6113      	str	r3, [r2, #16]
 80014a8:	6193      	str	r3, [r2, #24]
 80014aa:	930c      	str	r3, [sp, #48]	; 0x30
 80014ac:	f001 fd62 	bl	8002f74 <HAL_TIM_Base_Init>
 80014b0:	2800      	cmp	r0, #0
 80014b2:	f040 809e 	bne.w	80015f2 <main+0x506>
 80014b6:	f44f 5380 	mov.w	r3, #4096	; 0x1000
 80014ba:	a90d      	add	r1, sp, #52	; 0x34
 80014bc:	4864      	ldr	r0, [pc, #400]	; (8001650 <main+0x564>)
 80014be:	930d      	str	r3, [sp, #52]	; 0x34
 80014c0:	f001 fdf2 	bl	80030a8 <HAL_TIM_ConfigClockSource>
 80014c4:	2800      	cmp	r0, #0
 80014c6:	f040 808d 	bne.w	80015e4 <main+0x4f8>
 80014ca:	2300      	movs	r3, #0
 80014cc:	a90b      	add	r1, sp, #44	; 0x2c
 80014ce:	4860      	ldr	r0, [pc, #384]	; (8001650 <main+0x564>)
 80014d0:	e9cd 330b 	strd	r3, r3, [sp, #44]	; 0x2c
 80014d4:	f001 ff40 	bl	8003358 <HAL_TIMEx_MasterConfigSynchronization>
 80014d8:	2800      	cmp	r0, #0
 80014da:	d17c      	bne.n	80015d6 <main+0x4ea>
 80014dc:	4a5d      	ldr	r2, [pc, #372]	; (8001654 <main+0x568>)
 80014de:	4b5e      	ldr	r3, [pc, #376]	; (8001658 <main+0x56c>)
 80014e0:	6013      	str	r3, [r2, #0]
 80014e2:	2119      	movs	r1, #25
 80014e4:	2300      	movs	r3, #0
 80014e6:	4610      	mov	r0, r2
 80014e8:	60d1      	str	r1, [r2, #12]
 80014ea:	6053      	str	r3, [r2, #4]
 80014ec:	e9cd 330d 	strd	r3, r3, [sp, #52]	; 0x34
 80014f0:	e9cd 330f 	strd	r3, r3, [sp, #60]	; 0x3c
 80014f4:	e9cd 330b 	strd	r3, r3, [sp, #44]	; 0x2c
 80014f8:	6093      	str	r3, [r2, #8]
 80014fa:	6113      	str	r3, [r2, #16]
 80014fc:	6193      	str	r3, [r2, #24]
 80014fe:	f001 fd39 	bl	8002f74 <HAL_TIM_Base_Init>
 8001502:	2800      	cmp	r0, #0
 8001504:	d160      	bne.n	80015c8 <main+0x4dc>
 8001506:	f44f 5380 	mov.w	r3, #4096	; 0x1000
 800150a:	a90d      	add	r1, sp, #52	; 0x34
 800150c:	4851      	ldr	r0, [pc, #324]	; (8001654 <main+0x568>)
 800150e:	930d      	str	r3, [sp, #52]	; 0x34
 8001510:	f001 fdca 	bl	80030a8 <HAL_TIM_ConfigClockSource>
 8001514:	2800      	cmp	r0, #0
 8001516:	d150      	bne.n	80015ba <main+0x4ce>
 8001518:	2300      	movs	r3, #0
 800151a:	a90b      	add	r1, sp, #44	; 0x2c
 800151c:	484d      	ldr	r0, [pc, #308]	; (8001654 <main+0x568>)
 800151e:	e9cd 330b 	strd	r3, r3, [sp, #44]	; 0x2c
 8001522:	f001 ff19 	bl	8003358 <HAL_TIMEx_MasterConfigSynchronization>
 8001526:	2800      	cmp	r0, #0
 8001528:	d140      	bne.n	80015ac <main+0x4c0>
 800152a:	4a4c      	ldr	r2, [pc, #304]	; (800165c <main+0x570>)
 800152c:	4b4c      	ldr	r3, [pc, #304]	; (8001660 <main+0x574>)
 800152e:	6013      	str	r3, [r2, #0]
 8001530:	215a      	movs	r1, #90	; 0x5a
 8001532:	2300      	movs	r3, #0
 8001534:	4610      	mov	r0, r2
 8001536:	60d1      	str	r1, [r2, #12]
 8001538:	6053      	str	r3, [r2, #4]
 800153a:	e9cd 330d 	strd	r3, r3, [sp, #52]	; 0x34
 800153e:	e9cd 330f 	strd	r3, r3, [sp, #60]	; 0x3c
 8001542:	e9cd 330b 	strd	r3, r3, [sp, #44]	; 0x2c
 8001546:	6093      	str	r3, [r2, #8]
 8001548:	6113      	str	r3, [r2, #16]
 800154a:	6193      	str	r3, [r2, #24]
 800154c:	f001 fd12 	bl	8002f74 <HAL_TIM_Base_Init>
 8001550:	bb28      	cbnz	r0, 800159e <main+0x4b2>
 8001552:	f44f 5380 	mov.w	r3, #4096	; 0x1000
 8001556:	a90d      	add	r1, sp, #52	; 0x34
 8001558:	4840      	ldr	r0, [pc, #256]	; (800165c <main+0x570>)
 800155a:	930d      	str	r3, [sp, #52]	; 0x34
 800155c:	f001 fda4 	bl	80030a8 <HAL_TIM_ConfigClockSource>
 8001560:	b9b0      	cbnz	r0, 8001590 <main+0x4a4>
 8001562:	2300      	movs	r3, #0
 8001564:	a90b      	add	r1, sp, #44	; 0x2c
 8001566:	483d      	ldr	r0, [pc, #244]	; (800165c <main+0x570>)
 8001568:	e9cd 330b 	strd	r3, r3, [sp, #44]	; 0x2c
 800156c:	f001 fef4 	bl	8003358 <HAL_TIMEx_MasterConfigSynchronization>
 8001570:	b938      	cbnz	r0, 8001582 <main+0x496>
 8001572:	4a3c      	ldr	r2, [pc, #240]	; (8001664 <main+0x578>)
 8001574:	6813      	ldr	r3, [r2, #0]
 8001576:	f443 7340 	orr.w	r3, r3, #768	; 0x300
 800157a:	6013      	str	r3, [r2, #0]
 800157c:	f7ff f87a 	bl	8000674 <cppmain>
 8001580:	e7fe      	b.n	8001580 <main+0x494>
 8001582:	2201      	movs	r2, #1
 8001584:	f44f 7180 	mov.w	r1, #256	; 0x100
 8001588:	4837      	ldr	r0, [pc, #220]	; (8001668 <main+0x57c>)
 800158a:	f001 f9d9 	bl	8002940 <HAL_GPIO_WritePin>
 800158e:	e7f0      	b.n	8001572 <main+0x486>
 8001590:	2201      	movs	r2, #1
 8001592:	f44f 7180 	mov.w	r1, #256	; 0x100
 8001596:	4834      	ldr	r0, [pc, #208]	; (8001668 <main+0x57c>)
 8001598:	f001 f9d2 	bl	8002940 <HAL_GPIO_WritePin>
 800159c:	e7e1      	b.n	8001562 <main+0x476>
 800159e:	2201      	movs	r2, #1
 80015a0:	f44f 7180 	mov.w	r1, #256	; 0x100
 80015a4:	4830      	ldr	r0, [pc, #192]	; (8001668 <main+0x57c>)
 80015a6:	f001 f9cb 	bl	8002940 <HAL_GPIO_WritePin>
 80015aa:	e7d2      	b.n	8001552 <main+0x466>
 80015ac:	2201      	movs	r2, #1
 80015ae:	f44f 7180 	mov.w	r1, #256	; 0x100
 80015b2:	482d      	ldr	r0, [pc, #180]	; (8001668 <main+0x57c>)
 80015b4:	f001 f9c4 	bl	8002940 <HAL_GPIO_WritePin>
 80015b8:	e7b7      	b.n	800152a <main+0x43e>
 80015ba:	2201      	movs	r2, #1
 80015bc:	f44f 7180 	mov.w	r1, #256	; 0x100
 80015c0:	4829      	ldr	r0, [pc, #164]	; (8001668 <main+0x57c>)
 80015c2:	f001 f9bd 	bl	8002940 <HAL_GPIO_WritePin>
 80015c6:	e7a7      	b.n	8001518 <main+0x42c>
 80015c8:	2201      	movs	r2, #1
 80015ca:	f44f 7180 	mov.w	r1, #256	; 0x100
 80015ce:	4826      	ldr	r0, [pc, #152]	; (8001668 <main+0x57c>)
 80015d0:	f001 f9b6 	bl	8002940 <HAL_GPIO_WritePin>
 80015d4:	e797      	b.n	8001506 <main+0x41a>
 80015d6:	2201      	movs	r2, #1
 80015d8:	f44f 7180 	mov.w	r1, #256	; 0x100
 80015dc:	4822      	ldr	r0, [pc, #136]	; (8001668 <main+0x57c>)
 80015de:	f001 f9af 	bl	8002940 <HAL_GPIO_WritePin>
 80015e2:	e77b      	b.n	80014dc <main+0x3f0>
 80015e4:	2201      	movs	r2, #1
 80015e6:	f44f 7180 	mov.w	r1, #256	; 0x100
 80015ea:	481f      	ldr	r0, [pc, #124]	; (8001668 <main+0x57c>)
 80015ec:	f001 f9a8 	bl	8002940 <HAL_GPIO_WritePin>
 80015f0:	e76b      	b.n	80014ca <main+0x3de>
 80015f2:	2201      	movs	r2, #1
 80015f4:	f44f 7180 	mov.w	r1, #256	; 0x100
 80015f8:	481b      	ldr	r0, [pc, #108]	; (8001668 <main+0x57c>)
 80015fa:	f001 f9a1 	bl	8002940 <HAL_GPIO_WritePin>
 80015fe:	e75a      	b.n	80014b6 <main+0x3ca>
 8001600:	4622      	mov	r2, r4
 8001602:	f44f 7180 	mov.w	r1, #256	; 0x100
 8001606:	4818      	ldr	r0, [pc, #96]	; (8001668 <main+0x57c>)
 8001608:	f001 f99a 	bl	8002940 <HAL_GPIO_WritePin>
 800160c:	e73b      	b.n	8001486 <main+0x39a>
 800160e:	4622      	mov	r2, r4
 8001610:	f44f 7180 	mov.w	r1, #256	; 0x100
 8001614:	4814      	ldr	r0, [pc, #80]	; (8001668 <main+0x57c>)
 8001616:	f001 f993 	bl	8002940 <HAL_GPIO_WritePin>
 800161a:	e719      	b.n	8001450 <main+0x364>
 800161c:	2201      	movs	r2, #1
 800161e:	f44f 7180 	mov.w	r1, #256	; 0x100
 8001622:	4811      	ldr	r0, [pc, #68]	; (8001668 <main+0x57c>)
 8001624:	f001 f98c 	bl	8002940 <HAL_GPIO_WritePin>
 8001628:	e6d6      	b.n	80013d8 <main+0x2ec>
 800162a:	2201      	movs	r2, #1
 800162c:	f44f 7180 	mov.w	r1, #256	; 0x100
 8001630:	480d      	ldr	r0, [pc, #52]	; (8001668 <main+0x57c>)
 8001632:	f001 f985 	bl	8002940 <HAL_GPIO_WritePin>
 8001636:	e6b8      	b.n	80013aa <main+0x2be>
 8001638:	4632      	mov	r2, r6
 800163a:	f44f 7180 	mov.w	r1, #256	; 0x100
 800163e:	480a      	ldr	r0, [pc, #40]	; (8001668 <main+0x57c>)
 8001640:	f001 f97e 	bl	8002940 <HAL_GPIO_WritePin>
 8001644:	e697      	b.n	8001376 <main+0x28a>
 8001646:	bf00      	nop
 8001648:	200008e4 	.word	0x200008e4
 800164c:	40015400 	.word	0x40015400
 8001650:	20000aec 	.word	0x20000aec
 8001654:	2000093c 	.word	0x2000093c
 8001658:	40000400 	.word	0x40000400
 800165c:	200007e4 	.word	0x200007e4
 8001660:	40000800 	.word	0x40000800
 8001664:	40023c00 	.word	0x40023c00
 8001668:	40020c00 	.word	0x40020c00

0800166c <Error_Handler>:
 800166c:	2201      	movs	r2, #1
 800166e:	f44f 7180 	mov.w	r1, #256	; 0x100
 8001672:	4801      	ldr	r0, [pc, #4]	; (8001678 <Error_Handler+0xc>)
 8001674:	f001 b964 	b.w	8002940 <HAL_GPIO_WritePin>
 8001678:	40020c00 	.word	0x40020c00

0800167c <_Z11RecordTraceP7ADC_DevhP7DAC_Devt>:
 800167c:	e92d 4ff0 	stmdb	sp!, {r4, r5, r6, r7, r8, r9, sl, fp, lr}
 8001680:	4607      	mov	r7, r0
 8001682:	b085      	sub	sp, #20
 8001684:	0098      	lsls	r0, r3, #2
 8001686:	461e      	mov	r6, r3
 8001688:	4689      	mov	r9, r1
 800168a:	4b26      	ldr	r3, [pc, #152]	; (8001724 <_Z11RecordTraceP7ADC_DevhP7DAC_Devt+0xa8>)
 800168c:	fbb3 f8f6 	udiv	r8, r3, r6
 8001690:	4692      	mov	sl, r2
 8001692:	f001 fe87 	bl	80033a4 <_Znaj>
 8001696:	9001      	str	r0, [sp, #4]
 8001698:	2e00      	cmp	r6, #0
 800169a:	d03f      	beq.n	800171c <_Z11RecordTraceP7ADC_DevhP7DAC_Devt+0xa0>
 800169c:	3e01      	subs	r6, #1
 800169e:	b2b6      	uxth	r6, r6
 80016a0:	eb00 0686 	add.w	r6, r0, r6, lsl #2
 80016a4:	3604      	adds	r6, #4
 80016a6:	4605      	mov	r5, r0
 80016a8:	f44f 2400 	mov.w	r4, #524288	; 0x80000
 80016ac:	f241 3b88 	movw	fp, #5000	; 0x1388
 80016b0:	4621      	mov	r1, r4
 80016b2:	4650      	mov	r0, sl
 80016b4:	f002 f80c 	bl	80036d0 <___ZN7DAC_Dev8WriteIntEl_veneer>
 80016b8:	f89a 301c 	ldrb.w	r3, [sl, #28]
 80016bc:	2b00      	cmp	r3, #0
 80016be:	d0fb      	beq.n	80016b8 <_Z11RecordTraceP7ADC_DevhP7DAC_Devt+0x3c>
 80016c0:	f8cd b00c 	str.w	fp, [sp, #12]
 80016c4:	9b03      	ldr	r3, [sp, #12]
 80016c6:	b12b      	cbz	r3, 80016d4 <_Z11RecordTraceP7ADC_DevhP7DAC_Devt+0x58>
 80016c8:	9b03      	ldr	r3, [sp, #12]
 80016ca:	3b01      	subs	r3, #1
 80016cc:	9303      	str	r3, [sp, #12]
 80016ce:	9b03      	ldr	r3, [sp, #12]
 80016d0:	2b00      	cmp	r3, #0
 80016d2:	d1f9      	bne.n	80016c8 <_Z11RecordTraceP7ADC_DevhP7DAC_Devt+0x4c>
 80016d4:	4638      	mov	r0, r7
 80016d6:	f002 f807 	bl	80036e8 <___ZN7ADC_Dev4ReadEv_veneer>
 80016da:	f89a 301c 	ldrb.w	r3, [sl, #28]
 80016de:	2b00      	cmp	r3, #0
 80016e0:	d0fb      	beq.n	80016da <_Z11RecordTraceP7ADC_DevhP7DAC_Devt+0x5e>
 80016e2:	f1b9 0f01 	cmp.w	r9, #1
 80016e6:	bf0c      	ite	eq
 80016e8:	69f8      	ldreq	r0, [r7, #28]
 80016ea:	6a38      	ldrne	r0, [r7, #32]
 80016ec:	f001 ffe8 	bl	80036c0 <___ZN11ADC_Channel8GetFloatEv_veneer>
 80016f0:	f24c 3350 	movw	r3, #50000	; 0xc350
 80016f4:	ed85 0a00 	vstr	s0, [r5]
 80016f8:	9303      	str	r3, [sp, #12]
 80016fa:	4444      	add	r4, r8
 80016fc:	9b03      	ldr	r3, [sp, #12]
 80016fe:	f5b4 1f80 	cmp.w	r4, #1048576	; 0x100000
 8001702:	bf88      	it	hi
 8001704:	f5a4 1480 	subhi.w	r4, r4, #1048576	; 0x100000
 8001708:	b12b      	cbz	r3, 8001716 <_Z11RecordTraceP7ADC_DevhP7DAC_Devt+0x9a>
 800170a:	9b03      	ldr	r3, [sp, #12]
 800170c:	3b01      	subs	r3, #1
 800170e:	9303      	str	r3, [sp, #12]
 8001710:	9b03      	ldr	r3, [sp, #12]
 8001712:	2b00      	cmp	r3, #0
 8001714:	d1f9      	bne.n	800170a <_Z11RecordTraceP7ADC_DevhP7DAC_Devt+0x8e>
 8001716:	3504      	adds	r5, #4
 8001718:	42ae      	cmp	r6, r5
 800171a:	d1c9      	bne.n	80016b0 <_Z11RecordTraceP7ADC_DevhP7DAC_Devt+0x34>
 800171c:	9801      	ldr	r0, [sp, #4]
 800171e:	b005      	add	sp, #20
 8001720:	e8bd 8ff0 	ldmia.w	sp!, {r4, r5, r6, r7, r8, r9, sl, fp, pc}
 8001724:	000fffff 	.word	0x000fffff

08001728 <_Z11RecordTraceP7ADC_DevbbP7DAC_Devffm>:
 8001728:	e92d 4ff0 	stmdb	sp!, {r4, r5, r6, r7, r8, r9, sl, fp, lr}
 800172c:	ed2d 8b02 	vpush	{d8}
 8001730:	b085      	sub	sp, #20
 8001732:	ee70 0ac0 	vsub.f32	s1, s1, s0
 8001736:	9e10      	ldr	r6, [sp, #64]	; 0x40
 8001738:	1e74      	subs	r4, r6, #1
 800173a:	ee07 4a90 	vmov	s15, r4
 800173e:	eef8 7a67 	vcvt.f32.u32	s15, s15
 8001742:	eeb0 8a40 	vmov.f32	s16, s0
 8001746:	4605      	mov	r5, r0
 8001748:	4692      	mov	sl, r2
 800174a:	469b      	mov	fp, r3
 800174c:	eec0 8aa7 	vdiv.f32	s17, s1, s15
 8001750:	460f      	mov	r7, r1
 8001752:	b109      	cbz	r1, 8001758 <_Z11RecordTraceP7ADC_DevbbP7DAC_Devffm+0x30>
 8001754:	2a00      	cmp	r2, #0
 8001756:	d14c      	bne.n	80017f2 <_Z11RecordTraceP7ADC_DevbbP7DAC_Devffm+0xca>
 8001758:	4633      	mov	r3, r6
 800175a:	4a27      	ldr	r2, [pc, #156]	; (80017f8 <_Z11RecordTraceP7ADC_DevbbP7DAC_Devffm+0xd0>)
 800175c:	4293      	cmp	r3, r2
 800175e:	bf94      	ite	ls
 8001760:	0098      	lslls	r0, r3, #2
 8001762:	f04f 30ff 	movhi.w	r0, #4294967295
 8001766:	f001 fe1d 	bl	80033a4 <_Znaj>
 800176a:	4680      	mov	r8, r0
 800176c:	b34e      	cbz	r6, 80017c2 <_Z11RecordTraceP7ADC_DevbbP7DAC_Devffm+0x9a>
 800176e:	2400      	movs	r4, #0
 8001770:	f241 3988 	movw	r9, #5000	; 0x1388
 8001774:	eeb0 0a48 	vmov.f32	s0, s16
 8001778:	4658      	mov	r0, fp
 800177a:	f001 ffb1 	bl	80036e0 <___ZN7DAC_Dev10WriteFloatEf_veneer>
 800177e:	f89b 301c 	ldrb.w	r3, [fp, #28]
 8001782:	2b00      	cmp	r3, #0
 8001784:	d0fb      	beq.n	800177e <_Z11RecordTraceP7ADC_DevbbP7DAC_Devffm+0x56>
 8001786:	f8cd 900c 	str.w	r9, [sp, #12]
 800178a:	9b03      	ldr	r3, [sp, #12]
 800178c:	b12b      	cbz	r3, 800179a <_Z11RecordTraceP7ADC_DevbbP7DAC_Devffm+0x72>
 800178e:	9a03      	ldr	r2, [sp, #12]
 8001790:	3a01      	subs	r2, #1
 8001792:	9203      	str	r2, [sp, #12]
 8001794:	9b03      	ldr	r3, [sp, #12]
 8001796:	2b00      	cmp	r3, #0
 8001798:	d1f9      	bne.n	800178e <_Z11RecordTraceP7ADC_DevbbP7DAC_Devffm+0x66>
 800179a:	4628      	mov	r0, r5
 800179c:	f001 ffa4 	bl	80036e8 <___ZN7ADC_Dev4ReadEv_veneer>
 80017a0:	f89b 301c 	ldrb.w	r3, [fp, #28]
 80017a4:	2b00      	cmp	r3, #0
 80017a6:	d0fb      	beq.n	80017a0 <_Z11RecordTraceP7ADC_DevbbP7DAC_Devffm+0x78>
 80017a8:	b98f      	cbnz	r7, 80017ce <_Z11RecordTraceP7ADC_DevbbP7DAC_Devffm+0xa6>
 80017aa:	6a28      	ldr	r0, [r5, #32]
 80017ac:	f001 ff88 	bl	80036c0 <___ZN11ADC_Channel8GetFloatEv_veneer>
 80017b0:	eb08 0384 	add.w	r3, r8, r4, lsl #2
 80017b4:	ed83 0a00 	vstr	s0, [r3]
 80017b8:	3401      	adds	r4, #1
 80017ba:	42a6      	cmp	r6, r4
 80017bc:	ee38 8a28 	vadd.f32	s16, s16, s17
 80017c0:	d1d8      	bne.n	8001774 <_Z11RecordTraceP7ADC_DevbbP7DAC_Devffm+0x4c>
 80017c2:	4640      	mov	r0, r8
 80017c4:	b005      	add	sp, #20
 80017c6:	ecbd 8b02 	vpop	{d8}
 80017ca:	e8bd 8ff0 	ldmia.w	sp!, {r4, r5, r6, r7, r8, r9, sl, fp, pc}
 80017ce:	69e8      	ldr	r0, [r5, #28]
 80017d0:	f1ba 0f00 	cmp.w	sl, #0
 80017d4:	d0ea      	beq.n	80017ac <_Z11RecordTraceP7ADC_DevbbP7DAC_Devffm+0x84>
 80017d6:	f001 ff73 	bl	80036c0 <___ZN11ADC_Channel8GetFloatEv_veneer>
 80017da:	eb08 03c4 	add.w	r3, r8, r4, lsl #3
 80017de:	ed83 0a00 	vstr	s0, [r3]
 80017e2:	6a28      	ldr	r0, [r5, #32]
 80017e4:	9301      	str	r3, [sp, #4]
 80017e6:	f001 ff6b 	bl	80036c0 <___ZN11ADC_Channel8GetFloatEv_veneer>
 80017ea:	9b01      	ldr	r3, [sp, #4]
 80017ec:	ed83 0a01 	vstr	s0, [r3, #4]
 80017f0:	e7e2      	b.n	80017b8 <_Z11RecordTraceP7ADC_DevbbP7DAC_Devffm+0x90>
 80017f2:	0073      	lsls	r3, r6, #1
 80017f4:	e7b1      	b.n	800175a <_Z11RecordTraceP7ADC_DevbbP7DAC_Devffm+0x32>
 80017f6:	bf00      	nop
 80017f8:	1ffffffe 	.word	0x1ffffffe

080017fc <_Z12Move2VoltageP7DAC_Devff>:
 80017fc:	b5f0      	push	{r4, r5, r6, r7, lr}
 80017fe:	ed2d 8b02 	vpush	{d8}
 8001802:	b083      	sub	sp, #12
 8001804:	6c03      	ldr	r3, [r0, #64]	; 0x40
 8001806:	9300      	str	r3, [sp, #0]
 8001808:	eddd 7a00 	vldr	s15, [sp]
 800180c:	ed9d 7a00 	vldr	s14, [sp]
 8001810:	eef4 7ac0 	vcmpe.f32	s15, s0
 8001814:	eef1 fa10 	vmrs	APSR_nzcv, fpscr
 8001818:	bf4c      	ite	mi
 800181a:	ee30 7a47 	vsubmi.f32	s14, s0, s14
 800181e:	ee37 7a40 	vsubpl.f32	s14, s14, s0
 8001822:	eef7 6a00 	vmov.f32	s13, #112	; 0x3f800000  1.0
 8001826:	eec7 7a20 	vdiv.f32	s15, s14, s1
 800182a:	ed9d 7a00 	vldr	s14, [sp]
 800182e:	ee77 7aa6 	vadd.f32	s15, s15, s13
 8001832:	ee30 0a47 	vsub.f32	s0, s0, s14
 8001836:	eefc 7ae7 	vcvt.u32.f32	s15, s15
 800183a:	ee17 6a90 	vmov	r6, s15
 800183e:	eef8 7a67 	vcvt.f32.u32	s15, s15
 8001842:	ee80 8a27 	vdiv.f32	s16, s0, s15
 8001846:	b1e6      	cbz	r6, 8001882 <_Z12Move2VoltageP7DAC_Devff+0x86>
 8001848:	4604      	mov	r4, r0
 800184a:	2501      	movs	r5, #1
 800184c:	2764      	movs	r7, #100	; 0x64
 800184e:	4620      	mov	r0, r4
 8001850:	ee07 5a90 	vmov	s15, r5
 8001854:	ed9d 0a00 	vldr	s0, [sp]
 8001858:	eef8 7a67 	vcvt.f32.u32	s15, s15
 800185c:	eea7 0a88 	vfma.f32	s0, s15, s16
 8001860:	f001 ff3e 	bl	80036e0 <___ZN7DAC_Dev10WriteFloatEf_veneer>
 8001864:	7f23      	ldrb	r3, [r4, #28]
 8001866:	2b00      	cmp	r3, #0
 8001868:	d0fc      	beq.n	8001864 <_Z12Move2VoltageP7DAC_Devff+0x68>
 800186a:	9701      	str	r7, [sp, #4]
 800186c:	9b01      	ldr	r3, [sp, #4]
 800186e:	b12b      	cbz	r3, 800187c <_Z12Move2VoltageP7DAC_Devff+0x80>
 8001870:	9b01      	ldr	r3, [sp, #4]
 8001872:	3b01      	subs	r3, #1
 8001874:	9301      	str	r3, [sp, #4]
 8001876:	9b01      	ldr	r3, [sp, #4]
 8001878:	2b00      	cmp	r3, #0
 800187a:	d1f9      	bne.n	8001870 <_Z12Move2VoltageP7DAC_Devff+0x74>
 800187c:	3501      	adds	r5, #1
 800187e:	42ae      	cmp	r6, r5
 8001880:	d2e5      	bcs.n	800184e <_Z12Move2VoltageP7DAC_Devff+0x52>
 8001882:	b003      	add	sp, #12
 8001884:	ecbd 8b02 	vpop	{d8}
 8001888:	bdf0      	pop	{r4, r5, r6, r7, pc}
 800188a:	bf00      	nop

0800188c <_Z7Go2LockP7DAC_DevP7ADC_DevSt5queueI8WaypointSt5dequeIS4_SaIS4_EEEf>:
 800188c:	b570      	push	{r4, r5, r6, lr}
 800188e:	ed2d 8b02 	vpush	{d8}
 8001892:	4615      	mov	r5, r2
 8001894:	b084      	sub	sp, #16
 8001896:	6c02      	ldr	r2, [r0, #64]	; 0x40
 8001898:	68ab      	ldr	r3, [r5, #8]
 800189a:	9200      	str	r2, [sp, #0]
 800189c:	4604      	mov	r4, r0
 800189e:	eeb0 8a40 	vmov.f32	s16, s0
 80018a2:	460e      	mov	r6, r1
 80018a4:	69aa      	ldr	r2, [r5, #24]
 80018a6:	429a      	cmp	r2, r3
 80018a8:	d044      	beq.n	8001934 <_Z7Go2LockP7DAC_DevP7ADC_DevSt5queueI8WaypointSt5dequeIS4_SaIS4_EEEf+0xa8>
 80018aa:	eddd 7a00 	vldr	s15, [sp]
 80018ae:	ed94 7a0f 	vldr	s14, [r4, #60]	; 0x3c
 80018b2:	ee77 7a88 	vadd.f32	s15, s15, s16
 80018b6:	edcd 7a00 	vstr	s15, [sp]
 80018ba:	eddd 7a00 	vldr	s15, [sp]
 80018be:	eef4 7ac7 	vcmpe.f32	s15, s14
 80018c2:	eef1 fa10 	vmrs	APSR_nzcv, fpscr
 80018c6:	d435      	bmi.n	8001934 <_Z7Go2LockP7DAC_DevP7ADC_DevSt5queueI8WaypointSt5dequeIS4_SaIS4_EEEf+0xa8>
 80018c8:	ed9d 7a00 	vldr	s14, [sp]
 80018cc:	edd4 7a0e 	vldr	s15, [r4, #56]	; 0x38
 80018d0:	eeb4 7ae7 	vcmpe.f32	s14, s15
 80018d4:	eef1 fa10 	vmrs	APSR_nzcv, fpscr
 80018d8:	dc2c      	bgt.n	8001934 <_Z7Go2LockP7DAC_DevP7ADC_DevSt5queueI8WaypointSt5dequeIS4_SaIS4_EEEf+0xa8>
 80018da:	ed9d 0a00 	vldr	s0, [sp]
 80018de:	4620      	mov	r0, r4
 80018e0:	f001 fefe 	bl	80036e0 <___ZN7DAC_Dev10WriteFloatEf_veneer>
 80018e4:	7f23      	ldrb	r3, [r4, #28]
 80018e6:	2b00      	cmp	r3, #0
 80018e8:	d0fc      	beq.n	80018e4 <_Z7Go2LockP7DAC_DevP7ADC_DevSt5queueI8WaypointSt5dequeIS4_SaIS4_EEEf+0x58>
 80018ea:	4630      	mov	r0, r6
 80018ec:	f001 fefc 	bl	80036e8 <___ZN7ADC_Dev4ReadEv_veneer>
 80018f0:	7f23      	ldrb	r3, [r4, #28]
 80018f2:	2b00      	cmp	r3, #0
 80018f4:	d0fc      	beq.n	80018f0 <_Z7Go2LockP7DAC_DevP7ADC_DevSt5queueI8WaypointSt5dequeIS4_SaIS4_EEEf+0x64>
 80018f6:	68ab      	ldr	r3, [r5, #8]
 80018f8:	6a30      	ldr	r0, [r6, #32]
 80018fa:	681a      	ldr	r2, [r3, #0]
 80018fc:	685b      	ldr	r3, [r3, #4]
 80018fe:	9201      	str	r2, [sp, #4]
 8001900:	9302      	str	r3, [sp, #8]
 8001902:	f001 fedd 	bl	80036c0 <___ZN11ADC_Channel8GetFloatEv_veneer>
 8001906:	ed8d 0a03 	vstr	s0, [sp, #12]
 800190a:	ed9d 7a01 	vldr	s14, [sp, #4]
 800190e:	ed9d 6a03 	vldr	s12, [sp, #12]
 8001912:	eddd 7a01 	vldr	s15, [sp, #4]
 8001916:	eddd 6a02 	vldr	s13, [sp, #8]
 800191a:	ee27 7a06 	vmul.f32	s14, s14, s12
 800191e:	ee67 7aa6 	vmul.f32	s15, s15, s13
 8001922:	eeb4 7ae7 	vcmpe.f32	s14, s15
 8001926:	eef1 fa10 	vmrs	APSR_nzcv, fpscr
 800192a:	dc07      	bgt.n	800193c <_Z7Go2LockP7DAC_DevP7ADC_DevSt5queueI8WaypointSt5dequeIS4_SaIS4_EEEf+0xb0>
 800192c:	68ab      	ldr	r3, [r5, #8]
 800192e:	69aa      	ldr	r2, [r5, #24]
 8001930:	429a      	cmp	r2, r3
 8001932:	d1ba      	bne.n	80018aa <_Z7Go2LockP7DAC_DevP7ADC_DevSt5queueI8WaypointSt5dequeIS4_SaIS4_EEEf+0x1e>
 8001934:	b004      	add	sp, #16
 8001936:	ecbd 8b02 	vpop	{d8}
 800193a:	bd70      	pop	{r4, r5, r6, pc}
 800193c:	692a      	ldr	r2, [r5, #16]
 800193e:	68ab      	ldr	r3, [r5, #8]
 8001940:	3a08      	subs	r2, #8
 8001942:	4293      	cmp	r3, r2
 8001944:	d002      	beq.n	800194c <_Z7Go2LockP7DAC_DevP7ADC_DevSt5queueI8WaypointSt5dequeIS4_SaIS4_EEEf+0xc0>
 8001946:	3308      	adds	r3, #8
 8001948:	60ab      	str	r3, [r5, #8]
 800194a:	e7ab      	b.n	80018a4 <_Z7Go2LockP7DAC_DevP7ADC_DevSt5queueI8WaypointSt5dequeIS4_SaIS4_EEEf+0x18>
 800194c:	68e8      	ldr	r0, [r5, #12]
 800194e:	f001 fd47 	bl	80033e0 <_ZdlPv>
 8001952:	696a      	ldr	r2, [r5, #20]
 8001954:	6853      	ldr	r3, [r2, #4]
 8001956:	60eb      	str	r3, [r5, #12]
 8001958:	3204      	adds	r2, #4
 800195a:	f503 7100 	add.w	r1, r3, #512	; 0x200
 800195e:	60ab      	str	r3, [r5, #8]
 8001960:	e9c5 1204 	strd	r1, r2, [r5, #16]
 8001964:	e79e      	b.n	80018a4 <_Z7Go2LockP7DAC_DevP7ADC_DevSt5queueI8WaypointSt5dequeIS4_SaIS4_EEEf+0x18>
 8001966:	bf00      	nop

08001968 <_ZN15SPI_DMA_HandlerC1Ehhhhhm>:
 8001968:	b4f0      	push	{r4, r5, r6, r7}
 800196a:	3901      	subs	r1, #1
 800196c:	f89d 4010 	ldrb.w	r4, [sp, #16]
 8001970:	f89d 7014 	ldrb.w	r7, [sp, #20]
 8001974:	9e06      	ldr	r6, [sp, #24]
 8001976:	2905      	cmp	r1, #5
 8001978:	d806      	bhi.n	8001988 <_ZN15SPI_DMA_HandlerC1Ehhhhhm+0x20>
 800197a:	e8df f001 	tbb	[pc, r1]
 800197e:	0518      	.short	0x0518
 8001980:	03121505 	.word	0x03121505
 8001984:	4982      	ldr	r1, [pc, #520]	; (8001b90 <_ZN15SPI_DMA_HandlerC1Ehhhhhm+0x228>)
 8001986:	6181      	str	r1, [r0, #24]
 8001988:	2a07      	cmp	r2, #7
 800198a:	f200 80fe 	bhi.w	8001b8a <_ZN15SPI_DMA_HandlerC1Ehhhhhm+0x222>
 800198e:	e8df f012 	tbh	[pc, r2, lsl #1]
 8001992:	00c3      	.short	0x00c3
 8001994:	00d200ca 	.word	0x00d200ca
 8001998:	00e200da 	.word	0x00e200da
 800199c:	00f100e9 	.word	0x00f100e9
 80019a0:	0011      	.short	0x0011
 80019a2:	497c      	ldr	r1, [pc, #496]	; (8001b94 <_ZN15SPI_DMA_HandlerC1Ehhhhhm+0x22c>)
 80019a4:	6181      	str	r1, [r0, #24]
 80019a6:	e7ef      	b.n	8001988 <_ZN15SPI_DMA_HandlerC1Ehhhhhm+0x20>
 80019a8:	497b      	ldr	r1, [pc, #492]	; (8001b98 <_ZN15SPI_DMA_HandlerC1Ehhhhhm+0x230>)
 80019aa:	6181      	str	r1, [r0, #24]
 80019ac:	e7ec      	b.n	8001988 <_ZN15SPI_DMA_HandlerC1Ehhhhhm+0x20>
 80019ae:	497b      	ldr	r1, [pc, #492]	; (8001b9c <_ZN15SPI_DMA_HandlerC1Ehhhhhm+0x234>)
 80019b0:	6181      	str	r1, [r0, #24]
 80019b2:	e7e9      	b.n	8001988 <_ZN15SPI_DMA_HandlerC1Ehhhhhm+0x20>
 80019b4:	4a7a      	ldr	r2, [pc, #488]	; (8001ba0 <_ZN15SPI_DMA_HandlerC1Ehhhhhm+0x238>)
 80019b6:	497b      	ldr	r1, [pc, #492]	; (8001ba4 <_ZN15SPI_DMA_HandlerC1Ehhhhhm+0x23c>)
 80019b8:	6082      	str	r2, [r0, #8]
 80019ba:	f04f 6200 	mov.w	r2, #134217728	; 0x8000000
 80019be:	6001      	str	r1, [r0, #0]
 80019c0:	6102      	str	r2, [r0, #16]
 80019c2:	2c07      	cmp	r4, #7
 80019c4:	f200 80de 	bhi.w	8001b84 <_ZN15SPI_DMA_HandlerC1Ehhhhhm+0x21c>
 80019c8:	e8df f004 	tbb	[pc, r4]
 80019cc:	878f979f 	.word	0x878f979f
 80019d0:	04707880 	.word	0x04707880
 80019d4:	4a72      	ldr	r2, [pc, #456]	; (8001ba0 <_ZN15SPI_DMA_HandlerC1Ehhhhhm+0x238>)
 80019d6:	4c73      	ldr	r4, [pc, #460]	; (8001ba4 <_ZN15SPI_DMA_HandlerC1Ehhhhhm+0x23c>)
 80019d8:	60c2      	str	r2, [r0, #12]
 80019da:	f04f 6100 	mov.w	r1, #134217728	; 0x8000000
 80019de:	6044      	str	r4, [r0, #4]
 80019e0:	6141      	str	r1, [r0, #20]
 80019e2:	6881      	ldr	r1, [r0, #8]
 80019e4:	6984      	ldr	r4, [r0, #24]
 80019e6:	b351      	cbz	r1, 8001a3e <_ZN15SPI_DMA_HandlerC1Ehhhhhm+0xd6>
 80019e8:	680d      	ldr	r5, [r1, #0]
 80019ea:	f025 0501 	bic.w	r5, r5, #1
 80019ee:	600d      	str	r5, [r1, #0]
 80019f0:	680d      	ldr	r5, [r1, #0]
 80019f2:	f025 6560 	bic.w	r5, r5, #234881024	; 0xe000000
 80019f6:	600d      	str	r5, [r1, #0]
 80019f8:	680d      	ldr	r5, [r1, #0]
 80019fa:	ea45 6543 	orr.w	r5, r5, r3, lsl #25
 80019fe:	f104 030c 	add.w	r3, r4, #12
 8001a02:	600d      	str	r5, [r1, #0]
 8001a04:	608b      	str	r3, [r1, #8]
 8001a06:	680b      	ldr	r3, [r1, #0]
 8001a08:	f423 3340 	bic.w	r3, r3, #196608	; 0x30000
 8001a0c:	600b      	str	r3, [r1, #0]
 8001a0e:	680b      	ldr	r3, [r1, #0]
 8001a10:	ea43 4306 	orr.w	r3, r3, r6, lsl #16
 8001a14:	600b      	str	r3, [r1, #0]
 8001a16:	680b      	ldr	r3, [r1, #0]
 8001a18:	f443 6380 	orr.w	r3, r3, #1024	; 0x400
 8001a1c:	600b      	str	r3, [r1, #0]
 8001a1e:	680b      	ldr	r3, [r1, #0]
 8001a20:	f423 7300 	bic.w	r3, r3, #512	; 0x200
 8001a24:	600b      	str	r3, [r1, #0]
 8001a26:	680b      	ldr	r3, [r1, #0]
 8001a28:	f023 03c0 	bic.w	r3, r3, #192	; 0xc0
 8001a2c:	600b      	str	r3, [r1, #0]
 8001a2e:	680b      	ldr	r3, [r1, #0]
 8001a30:	f423 2380 	bic.w	r3, r3, #262144	; 0x40000
 8001a34:	600b      	str	r3, [r1, #0]
 8001a36:	680b      	ldr	r3, [r1, #0]
 8001a38:	f043 0310 	orr.w	r3, r3, #16
 8001a3c:	600b      	str	r3, [r1, #0]
 8001a3e:	2a00      	cmp	r2, #0
 8001a40:	d02e      	beq.n	8001aa0 <_ZN15SPI_DMA_HandlerC1Ehhhhhm+0x138>
 8001a42:	6813      	ldr	r3, [r2, #0]
 8001a44:	f023 0301 	bic.w	r3, r3, #1
 8001a48:	6013      	str	r3, [r2, #0]
 8001a4a:	6813      	ldr	r3, [r2, #0]
 8001a4c:	f023 6360 	bic.w	r3, r3, #234881024	; 0xe000000
 8001a50:	6013      	str	r3, [r2, #0]
 8001a52:	6815      	ldr	r5, [r2, #0]
 8001a54:	f104 010c 	add.w	r1, r4, #12
 8001a58:	ea45 6547 	orr.w	r5, r5, r7, lsl #25
 8001a5c:	6015      	str	r5, [r2, #0]
 8001a5e:	6091      	str	r1, [r2, #8]
 8001a60:	6811      	ldr	r1, [r2, #0]
 8001a62:	f421 3140 	bic.w	r1, r1, #196608	; 0x30000
 8001a66:	6011      	str	r1, [r2, #0]
 8001a68:	6813      	ldr	r3, [r2, #0]
 8001a6a:	ea43 4306 	orr.w	r3, r3, r6, lsl #16
 8001a6e:	6013      	str	r3, [r2, #0]
 8001a70:	6813      	ldr	r3, [r2, #0]
 8001a72:	f443 6380 	orr.w	r3, r3, #1024	; 0x400
 8001a76:	6013      	str	r3, [r2, #0]
 8001a78:	6813      	ldr	r3, [r2, #0]
 8001a7a:	f423 7300 	bic.w	r3, r3, #512	; 0x200
 8001a7e:	6013      	str	r3, [r2, #0]
 8001a80:	6813      	ldr	r3, [r2, #0]
 8001a82:	f023 0380 	bic.w	r3, r3, #128	; 0x80
 8001a86:	6013      	str	r3, [r2, #0]
 8001a88:	6813      	ldr	r3, [r2, #0]
 8001a8a:	f043 0340 	orr.w	r3, r3, #64	; 0x40
 8001a8e:	6013      	str	r3, [r2, #0]
 8001a90:	6813      	ldr	r3, [r2, #0]
 8001a92:	f423 2380 	bic.w	r3, r3, #262144	; 0x40000
 8001a96:	6013      	str	r3, [r2, #0]
 8001a98:	6813      	ldr	r3, [r2, #0]
 8001a9a:	f043 0310 	orr.w	r3, r3, #16
 8001a9e:	6013      	str	r3, [r2, #0]
 8001aa0:	6823      	ldr	r3, [r4, #0]
 8001aa2:	f043 0340 	orr.w	r3, r3, #64	; 0x40
 8001aa6:	6023      	str	r3, [r4, #0]
 8001aa8:	bcf0      	pop	{r4, r5, r6, r7}
 8001aaa:	4770      	bx	lr
 8001aac:	4a3e      	ldr	r2, [pc, #248]	; (8001ba8 <_ZN15SPI_DMA_HandlerC1Ehhhhhm+0x240>)
 8001aae:	4c3d      	ldr	r4, [pc, #244]	; (8001ba4 <_ZN15SPI_DMA_HandlerC1Ehhhhhm+0x23c>)
 8001ab0:	60c2      	str	r2, [r0, #12]
 8001ab2:	f44f 1100 	mov.w	r1, #2097152	; 0x200000
 8001ab6:	6044      	str	r4, [r0, #4]
 8001ab8:	6141      	str	r1, [r0, #20]
 8001aba:	e792      	b.n	80019e2 <_ZN15SPI_DMA_HandlerC1Ehhhhhm+0x7a>
 8001abc:	4a3b      	ldr	r2, [pc, #236]	; (8001bac <_ZN15SPI_DMA_HandlerC1Ehhhhhm+0x244>)
 8001abe:	4c39      	ldr	r4, [pc, #228]	; (8001ba4 <_ZN15SPI_DMA_HandlerC1Ehhhhhm+0x23c>)
 8001ac0:	60c2      	str	r2, [r0, #12]
 8001ac2:	f44f 6100 	mov.w	r1, #2048	; 0x800
 8001ac6:	6044      	str	r4, [r0, #4]
 8001ac8:	6141      	str	r1, [r0, #20]
 8001aca:	e78a      	b.n	80019e2 <_ZN15SPI_DMA_HandlerC1Ehhhhhm+0x7a>
 8001acc:	4a38      	ldr	r2, [pc, #224]	; (8001bb0 <_ZN15SPI_DMA_HandlerC1Ehhhhhm+0x248>)
 8001ace:	4c35      	ldr	r4, [pc, #212]	; (8001ba4 <_ZN15SPI_DMA_HandlerC1Ehhhhhm+0x23c>)
 8001ad0:	60c2      	str	r2, [r0, #12]
 8001ad2:	2120      	movs	r1, #32
 8001ad4:	6044      	str	r4, [r0, #4]
 8001ad6:	6141      	str	r1, [r0, #20]
 8001ad8:	e783      	b.n	80019e2 <_ZN15SPI_DMA_HandlerC1Ehhhhhm+0x7a>
 8001ada:	4a36      	ldr	r2, [pc, #216]	; (8001bb4 <_ZN15SPI_DMA_HandlerC1Ehhhhhm+0x24c>)
 8001adc:	4c36      	ldr	r4, [pc, #216]	; (8001bb8 <_ZN15SPI_DMA_HandlerC1Ehhhhhm+0x250>)
 8001ade:	60c2      	str	r2, [r0, #12]
 8001ae0:	f04f 6100 	mov.w	r1, #134217728	; 0x8000000
 8001ae4:	6044      	str	r4, [r0, #4]
 8001ae6:	6141      	str	r1, [r0, #20]
 8001ae8:	e77b      	b.n	80019e2 <_ZN15SPI_DMA_HandlerC1Ehhhhhm+0x7a>
 8001aea:	4a34      	ldr	r2, [pc, #208]	; (8001bbc <_ZN15SPI_DMA_HandlerC1Ehhhhhm+0x254>)
 8001aec:	4c32      	ldr	r4, [pc, #200]	; (8001bb8 <_ZN15SPI_DMA_HandlerC1Ehhhhhm+0x250>)
 8001aee:	60c2      	str	r2, [r0, #12]
 8001af0:	f44f 1100 	mov.w	r1, #2097152	; 0x200000
 8001af4:	6044      	str	r4, [r0, #4]
 8001af6:	6141      	str	r1, [r0, #20]
 8001af8:	e773      	b.n	80019e2 <_ZN15SPI_DMA_HandlerC1Ehhhhhm+0x7a>
 8001afa:	4a31      	ldr	r2, [pc, #196]	; (8001bc0 <_ZN15SPI_DMA_HandlerC1Ehhhhhm+0x258>)
 8001afc:	4c2e      	ldr	r4, [pc, #184]	; (8001bb8 <_ZN15SPI_DMA_HandlerC1Ehhhhhm+0x250>)
 8001afe:	60c2      	str	r2, [r0, #12]
 8001b00:	f44f 6100 	mov.w	r1, #2048	; 0x800
 8001b04:	6044      	str	r4, [r0, #4]
 8001b06:	6141      	str	r1, [r0, #20]
 8001b08:	e76b      	b.n	80019e2 <_ZN15SPI_DMA_HandlerC1Ehhhhhm+0x7a>
 8001b0a:	4a2e      	ldr	r2, [pc, #184]	; (8001bc4 <_ZN15SPI_DMA_HandlerC1Ehhhhhm+0x25c>)
 8001b0c:	4c2a      	ldr	r4, [pc, #168]	; (8001bb8 <_ZN15SPI_DMA_HandlerC1Ehhhhhm+0x250>)
 8001b0e:	60c2      	str	r2, [r0, #12]
 8001b10:	2120      	movs	r1, #32
 8001b12:	6044      	str	r4, [r0, #4]
 8001b14:	6141      	str	r1, [r0, #20]
 8001b16:	e764      	b.n	80019e2 <_ZN15SPI_DMA_HandlerC1Ehhhhhm+0x7a>
 8001b18:	4a2a      	ldr	r2, [pc, #168]	; (8001bc4 <_ZN15SPI_DMA_HandlerC1Ehhhhhm+0x25c>)
 8001b1a:	4927      	ldr	r1, [pc, #156]	; (8001bb8 <_ZN15SPI_DMA_HandlerC1Ehhhhhm+0x250>)
 8001b1c:	6082      	str	r2, [r0, #8]
 8001b1e:	2220      	movs	r2, #32
 8001b20:	6001      	str	r1, [r0, #0]
 8001b22:	6102      	str	r2, [r0, #16]
 8001b24:	e74d      	b.n	80019c2 <_ZN15SPI_DMA_HandlerC1Ehhhhhm+0x5a>
 8001b26:	4a26      	ldr	r2, [pc, #152]	; (8001bc0 <_ZN15SPI_DMA_HandlerC1Ehhhhhm+0x258>)
 8001b28:	4923      	ldr	r1, [pc, #140]	; (8001bb8 <_ZN15SPI_DMA_HandlerC1Ehhhhhm+0x250>)
 8001b2a:	6082      	str	r2, [r0, #8]
 8001b2c:	f44f 6200 	mov.w	r2, #2048	; 0x800
 8001b30:	6001      	str	r1, [r0, #0]
 8001b32:	6102      	str	r2, [r0, #16]
 8001b34:	e745      	b.n	80019c2 <_ZN15SPI_DMA_HandlerC1Ehhhhhm+0x5a>
 8001b36:	4a21      	ldr	r2, [pc, #132]	; (8001bbc <_ZN15SPI_DMA_HandlerC1Ehhhhhm+0x254>)
 8001b38:	491f      	ldr	r1, [pc, #124]	; (8001bb8 <_ZN15SPI_DMA_HandlerC1Ehhhhhm+0x250>)
 8001b3a:	6082      	str	r2, [r0, #8]
 8001b3c:	f44f 1200 	mov.w	r2, #2097152	; 0x200000
 8001b40:	6001      	str	r1, [r0, #0]
 8001b42:	6102      	str	r2, [r0, #16]
 8001b44:	e73d      	b.n	80019c2 <_ZN15SPI_DMA_HandlerC1Ehhhhhm+0x5a>
 8001b46:	4a1b      	ldr	r2, [pc, #108]	; (8001bb4 <_ZN15SPI_DMA_HandlerC1Ehhhhhm+0x24c>)
 8001b48:	491b      	ldr	r1, [pc, #108]	; (8001bb8 <_ZN15SPI_DMA_HandlerC1Ehhhhhm+0x250>)
 8001b4a:	6082      	str	r2, [r0, #8]
 8001b4c:	f04f 6200 	mov.w	r2, #134217728	; 0x8000000
 8001b50:	6001      	str	r1, [r0, #0]
 8001b52:	6102      	str	r2, [r0, #16]
 8001b54:	e735      	b.n	80019c2 <_ZN15SPI_DMA_HandlerC1Ehhhhhm+0x5a>
 8001b56:	4a16      	ldr	r2, [pc, #88]	; (8001bb0 <_ZN15SPI_DMA_HandlerC1Ehhhhhm+0x248>)
 8001b58:	4912      	ldr	r1, [pc, #72]	; (8001ba4 <_ZN15SPI_DMA_HandlerC1Ehhhhhm+0x23c>)
 8001b5a:	6082      	str	r2, [r0, #8]
 8001b5c:	2220      	movs	r2, #32
 8001b5e:	6001      	str	r1, [r0, #0]
 8001b60:	6102      	str	r2, [r0, #16]
 8001b62:	e72e      	b.n	80019c2 <_ZN15SPI_DMA_HandlerC1Ehhhhhm+0x5a>
 8001b64:	4a11      	ldr	r2, [pc, #68]	; (8001bac <_ZN15SPI_DMA_HandlerC1Ehhhhhm+0x244>)
 8001b66:	490f      	ldr	r1, [pc, #60]	; (8001ba4 <_ZN15SPI_DMA_HandlerC1Ehhhhhm+0x23c>)
 8001b68:	6082      	str	r2, [r0, #8]
 8001b6a:	f44f 6200 	mov.w	r2, #2048	; 0x800
 8001b6e:	6001      	str	r1, [r0, #0]
 8001b70:	6102      	str	r2, [r0, #16]
 8001b72:	e726      	b.n	80019c2 <_ZN15SPI_DMA_HandlerC1Ehhhhhm+0x5a>
 8001b74:	4a0c      	ldr	r2, [pc, #48]	; (8001ba8 <_ZN15SPI_DMA_HandlerC1Ehhhhhm+0x240>)
 8001b76:	490b      	ldr	r1, [pc, #44]	; (8001ba4 <_ZN15SPI_DMA_HandlerC1Ehhhhhm+0x23c>)
 8001b78:	6082      	str	r2, [r0, #8]
 8001b7a:	f44f 1200 	mov.w	r2, #2097152	; 0x200000
 8001b7e:	6001      	str	r1, [r0, #0]
 8001b80:	6102      	str	r2, [r0, #16]
 8001b82:	e71e      	b.n	80019c2 <_ZN15SPI_DMA_HandlerC1Ehhhhhm+0x5a>
 8001b84:	2200      	movs	r2, #0
 8001b86:	60c2      	str	r2, [r0, #12]
 8001b88:	e72b      	b.n	80019e2 <_ZN15SPI_DMA_HandlerC1Ehhhhhm+0x7a>
 8001b8a:	2200      	movs	r2, #0
 8001b8c:	6082      	str	r2, [r0, #8]
 8001b8e:	e718      	b.n	80019c2 <_ZN15SPI_DMA_HandlerC1Ehhhhhm+0x5a>
 8001b90:	40015400 	.word	0x40015400
 8001b94:	40015000 	.word	0x40015000
 8001b98:	40013400 	.word	0x40013400
 8001b9c:	40013000 	.word	0x40013000
 8001ba0:	400264b8 	.word	0x400264b8
 8001ba4:	4002640c 	.word	0x4002640c
 8001ba8:	400264a0 	.word	0x400264a0
 8001bac:	40026488 	.word	0x40026488
 8001bb0:	40026470 	.word	0x40026470
 8001bb4:	40026458 	.word	0x40026458
 8001bb8:	40026408 	.word	0x40026408
 8001bbc:	40026440 	.word	0x40026440
 8001bc0:	40026428 	.word	0x40026428
 8001bc4:	40026410 	.word	0x40026410

08001bc8 <_ZN12OscilloscopeC1EP11RaspberryPi>:
 8001bc8:	b538      	push	{r3, r4, r5, lr}
 8001bca:	2500      	movs	r5, #0
 8001bcc:	4604      	mov	r4, r0
 8001bce:	6081      	str	r1, [r0, #8]
 8001bd0:	6145      	str	r5, [r0, #20]
 8001bd2:	6185      	str	r5, [r0, #24]
 8001bd4:	f641 7054 	movw	r0, #8020	; 0x1f54
 8001bd8:	f001 fbe4 	bl	80033a4 <_Znaj>
 8001bdc:	23c8      	movs	r3, #200	; 0xc8
 8001bde:	6020      	str	r0, [r4, #0]
 8001be0:	e9c4 5503 	strd	r5, r5, [r4, #12]
 8001be4:	80a3      	strh	r3, [r4, #4]
 8001be6:	4620      	mov	r0, r4
 8001be8:	bd38      	pop	{r3, r4, r5, pc}
 8001bea:	bf00      	nop

08001bec <_ZN12Oscilloscope5SetupEt>:
 8001bec:	2300      	movs	r3, #0
 8001bee:	8081      	strh	r1, [r0, #4]
 8001bf0:	e9c0 3303 	strd	r3, r3, [r0, #12]
 8001bf4:	4770      	bx	lr
 8001bf6:	bf00      	nop

08001bf8 <_ZN3PID11SetPIDParamEPf>:
 8001bf8:	680b      	ldr	r3, [r1, #0]
 8001bfa:	6103      	str	r3, [r0, #16]
 8001bfc:	684b      	ldr	r3, [r1, #4]
 8001bfe:	6143      	str	r3, [r0, #20]
 8001c00:	688b      	ldr	r3, [r1, #8]
 8001c02:	6183      	str	r3, [r0, #24]
 8001c04:	2200      	movs	r2, #0
 8001c06:	6042      	str	r2, [r0, #4]
 8001c08:	4770      	bx	lr
 8001c0a:	bf00      	nop

08001c0c <_ZN11RaspberryPiC1EhhhhhP12GPIO_TypeDeft>:
 8001c0c:	e92d 4ff0 	stmdb	sp!, {r4, r5, r6, r7, r8, r9, sl, fp, lr}
 8001c10:	b085      	sub	sp, #20
 8001c12:	4604      	mov	r4, r0
 8001c14:	9d10      	ldr	r5, [sp, #64]	; 0x40
 8001c16:	f8bd 0044 	ldrh.w	r0, [sp, #68]	; 0x44
 8001c1a:	6065      	str	r5, [r4, #4]
 8001c1c:	8120      	strh	r0, [r4, #8]
 8001c1e:	201c      	movs	r0, #28
 8001c20:	460f      	mov	r7, r1
 8001c22:	4690      	mov	r8, r2
 8001c24:	4699      	mov	r9, r3
 8001c26:	f89d a038 	ldrb.w	sl, [sp, #56]	; 0x38
 8001c2a:	f89d b03c 	ldrb.w	fp, [sp, #60]	; 0x3c
 8001c2e:	f001 fbbd 	bl	80033ac <_Znwj>
 8001c32:	2501      	movs	r5, #1
 8001c34:	4606      	mov	r6, r0
 8001c36:	464b      	mov	r3, r9
 8001c38:	4642      	mov	r2, r8
 8001c3a:	4639      	mov	r1, r7
 8001c3c:	e9cd ab00 	strd	sl, fp, [sp]
 8001c40:	9502      	str	r5, [sp, #8]
 8001c42:	f7ff fe91 	bl	8001968 <_ZN15SPI_DMA_HandlerC1Ehhhhhm>
 8001c46:	6026      	str	r6, [r4, #0]
 8001c48:	72a5      	strb	r5, [r4, #10]
 8001c4a:	f640 70b4 	movw	r0, #4020	; 0xfb4
 8001c4e:	f001 fba9 	bl	80033a4 <_Znaj>
 8001c52:	60e0      	str	r0, [r4, #12]
 8001c54:	4620      	mov	r0, r4
 8001c56:	b005      	add	sp, #20
 8001c58:	e8bd 8ff0 	ldmia.w	sp!, {r4, r5, r6, r7, r8, r9, sl, fp, pc}

08001c5c <HAL_MspInit>:
 8001c5c:	b082      	sub	sp, #8
 8001c5e:	4b0c      	ldr	r3, [pc, #48]	; (8001c90 <HAL_MspInit+0x34>)
 8001c60:	2100      	movs	r1, #0
 8001c62:	9100      	str	r1, [sp, #0]
 8001c64:	6c5a      	ldr	r2, [r3, #68]	; 0x44
 8001c66:	f442 4280 	orr.w	r2, r2, #16384	; 0x4000
 8001c6a:	645a      	str	r2, [r3, #68]	; 0x44
 8001c6c:	6c5a      	ldr	r2, [r3, #68]	; 0x44
 8001c6e:	f402 4280 	and.w	r2, r2, #16384	; 0x4000
 8001c72:	9200      	str	r2, [sp, #0]
 8001c74:	9a00      	ldr	r2, [sp, #0]
 8001c76:	9101      	str	r1, [sp, #4]
 8001c78:	6c1a      	ldr	r2, [r3, #64]	; 0x40
 8001c7a:	f042 5280 	orr.w	r2, r2, #268435456	; 0x10000000
 8001c7e:	641a      	str	r2, [r3, #64]	; 0x40
 8001c80:	6c1b      	ldr	r3, [r3, #64]	; 0x40
 8001c82:	f003 5380 	and.w	r3, r3, #268435456	; 0x10000000
 8001c86:	9301      	str	r3, [sp, #4]
 8001c88:	9b01      	ldr	r3, [sp, #4]
 8001c8a:	b002      	add	sp, #8
 8001c8c:	4770      	bx	lr
 8001c8e:	bf00      	nop
 8001c90:	40023800 	.word	0x40023800

08001c94 <HAL_SPI_MspInit>:
 8001c94:	e92d 41f0 	stmdb	sp!, {r4, r5, r6, r7, r8, lr}
 8001c98:	6803      	ldr	r3, [r0, #0]
 8001c9a:	4a8e      	ldr	r2, [pc, #568]	; (8001ed4 <HAL_SPI_MspInit+0x240>)
 8001c9c:	b090      	sub	sp, #64	; 0x40
 8001c9e:	2400      	movs	r4, #0
 8001ca0:	4293      	cmp	r3, r2
 8001ca2:	4605      	mov	r5, r0
 8001ca4:	e9cd 440b 	strd	r4, r4, [sp, #44]	; 0x2c
 8001ca8:	e9cd 440d 	strd	r4, r4, [sp, #52]	; 0x34
 8001cac:	940f      	str	r4, [sp, #60]	; 0x3c
 8001cae:	d05f      	beq.n	8001d70 <HAL_SPI_MspInit+0xdc>
 8001cb0:	4a89      	ldr	r2, [pc, #548]	; (8001ed8 <HAL_SPI_MspInit+0x244>)
 8001cb2:	4293      	cmp	r3, r2
 8001cb4:	f000 8134 	beq.w	8001f20 <HAL_SPI_MspInit+0x28c>
 8001cb8:	4a88      	ldr	r2, [pc, #544]	; (8001edc <HAL_SPI_MspInit+0x248>)
 8001cba:	4293      	cmp	r3, r2
 8001cbc:	f000 80b0 	beq.w	8001e20 <HAL_SPI_MspInit+0x18c>
 8001cc0:	4a87      	ldr	r2, [pc, #540]	; (8001ee0 <HAL_SPI_MspInit+0x24c>)
 8001cc2:	4293      	cmp	r3, r2
 8001cc4:	d006      	beq.n	8001cd4 <HAL_SPI_MspInit+0x40>
 8001cc6:	4a87      	ldr	r2, [pc, #540]	; (8001ee4 <HAL_SPI_MspInit+0x250>)
 8001cc8:	4293      	cmp	r3, r2
 8001cca:	f000 816c 	beq.w	8001fa6 <HAL_SPI_MspInit+0x312>
 8001cce:	b010      	add	sp, #64	; 0x40
 8001cd0:	e8bd 81f0 	ldmia.w	sp!, {r4, r5, r6, r7, r8, pc}
 8001cd4:	4b84      	ldr	r3, [pc, #528]	; (8001ee8 <HAL_SPI_MspInit+0x254>)
 8001cd6:	9407      	str	r4, [sp, #28]
 8001cd8:	6c5a      	ldr	r2, [r3, #68]	; 0x44
 8001cda:	4884      	ldr	r0, [pc, #528]	; (8001eec <HAL_SPI_MspInit+0x258>)
 8001cdc:	4e84      	ldr	r6, [pc, #528]	; (8001ef0 <HAL_SPI_MspInit+0x25c>)
 8001cde:	f442 1280 	orr.w	r2, r2, #1048576	; 0x100000
 8001ce2:	645a      	str	r2, [r3, #68]	; 0x44
 8001ce4:	6c5a      	ldr	r2, [r3, #68]	; 0x44
 8001ce6:	f402 1280 	and.w	r2, r2, #1048576	; 0x100000
 8001cea:	9207      	str	r2, [sp, #28]
 8001cec:	9a07      	ldr	r2, [sp, #28]
 8001cee:	9408      	str	r4, [sp, #32]
 8001cf0:	6b1a      	ldr	r2, [r3, #48]	; 0x30
 8001cf2:	f042 0220 	orr.w	r2, r2, #32
 8001cf6:	631a      	str	r2, [r3, #48]	; 0x30
 8001cf8:	6b1b      	ldr	r3, [r3, #48]	; 0x30
 8001cfa:	f003 0320 	and.w	r3, r3, #32
 8001cfe:	2702      	movs	r7, #2
 8001d00:	9308      	str	r3, [sp, #32]
 8001d02:	f04f 0805 	mov.w	r8, #5
 8001d06:	f44f 7320 	mov.w	r3, #640	; 0x280
 8001d0a:	a90b      	add	r1, sp, #44	; 0x2c
 8001d0c:	9a08      	ldr	r2, [sp, #32]
 8001d0e:	930b      	str	r3, [sp, #44]	; 0x2c
 8001d10:	970c      	str	r7, [sp, #48]	; 0x30
 8001d12:	e9cd 780e 	strd	r7, r8, [sp, #56]	; 0x38
 8001d16:	f000 fccf 	bl	80026b8 <HAL_GPIO_Init>
 8001d1a:	f44f 7280 	mov.w	r2, #256	; 0x100
 8001d1e:	2303      	movs	r3, #3
 8001d20:	a90b      	add	r1, sp, #44	; 0x2c
 8001d22:	4872      	ldr	r0, [pc, #456]	; (8001eec <HAL_SPI_MspInit+0x258>)
 8001d24:	970c      	str	r7, [sp, #48]	; 0x30
 8001d26:	920b      	str	r2, [sp, #44]	; 0x2c
 8001d28:	930e      	str	r3, [sp, #56]	; 0x38
 8001d2a:	f8cd 803c 	str.w	r8, [sp, #60]	; 0x3c
 8001d2e:	940d      	str	r4, [sp, #52]	; 0x34
 8001d30:	f000 fcc2 	bl	80026b8 <HAL_GPIO_Init>
 8001d34:	f8df c1e4 	ldr.w	ip, [pc, #484]	; 8001f1c <HAL_SPI_MspInit+0x288>
 8001d38:	60f4      	str	r4, [r6, #12]
 8001d3a:	f04f 6780 	mov.w	r7, #67108864	; 0x4000000
 8001d3e:	e9c6 4405 	strd	r4, r4, [r6, #20]
 8001d42:	e9c6 c700 	strd	ip, r7, [r6]
 8001d46:	2140      	movs	r1, #64	; 0x40
 8001d48:	f44f 6280 	mov.w	r2, #1024	; 0x400
 8001d4c:	f44f 3340 	mov.w	r3, #196608	; 0x30000
 8001d50:	61f4      	str	r4, [r6, #28]
 8001d52:	6274      	str	r4, [r6, #36]	; 0x24
 8001d54:	4630      	mov	r0, r6
 8001d56:	60b1      	str	r1, [r6, #8]
 8001d58:	6132      	str	r2, [r6, #16]
 8001d5a:	6233      	str	r3, [r6, #32]
 8001d5c:	f000 fb3c 	bl	80023d8 <HAL_DMA_Init>
 8001d60:	b108      	cbz	r0, 8001d66 <HAL_SPI_MspInit+0xd2>
 8001d62:	f7ff fc83 	bl	800166c <Error_Handler>
 8001d66:	64ae      	str	r6, [r5, #72]	; 0x48
 8001d68:	63b5      	str	r5, [r6, #56]	; 0x38
 8001d6a:	b010      	add	sp, #64	; 0x40
 8001d6c:	e8bd 81f0 	ldmia.w	sp!, {r4, r5, r6, r7, r8, pc}
 8001d70:	4b5d      	ldr	r3, [pc, #372]	; (8001ee8 <HAL_SPI_MspInit+0x254>)
 8001d72:	9401      	str	r4, [sp, #4]
 8001d74:	6c5a      	ldr	r2, [r3, #68]	; 0x44
 8001d76:	4e5f      	ldr	r6, [pc, #380]	; (8001ef4 <HAL_SPI_MspInit+0x260>)
 8001d78:	485f      	ldr	r0, [pc, #380]	; (8001ef8 <HAL_SPI_MspInit+0x264>)
 8001d7a:	f442 5280 	orr.w	r2, r2, #4096	; 0x1000
 8001d7e:	645a      	str	r2, [r3, #68]	; 0x44
 8001d80:	6c5a      	ldr	r2, [r3, #68]	; 0x44
 8001d82:	f402 5280 	and.w	r2, r2, #4096	; 0x1000
 8001d86:	9201      	str	r2, [sp, #4]
 8001d88:	9a01      	ldr	r2, [sp, #4]
 8001d8a:	9402      	str	r4, [sp, #8]
 8001d8c:	6b1a      	ldr	r2, [r3, #48]	; 0x30
 8001d8e:	f042 0201 	orr.w	r2, r2, #1
 8001d92:	631a      	str	r2, [r3, #48]	; 0x30
 8001d94:	6b1b      	ldr	r3, [r3, #48]	; 0x30
 8001d96:	f003 0301 	and.w	r3, r3, #1
 8001d9a:	9302      	str	r3, [sp, #8]
 8001d9c:	23e0      	movs	r3, #224	; 0xe0
 8001d9e:	930b      	str	r3, [sp, #44]	; 0x2c
 8001da0:	2302      	movs	r3, #2
 8001da2:	a90b      	add	r1, sp, #44	; 0x2c
 8001da4:	930c      	str	r3, [sp, #48]	; 0x30
 8001da6:	f04f 0c03 	mov.w	ip, #3
 8001daa:	2305      	movs	r3, #5
 8001dac:	9a02      	ldr	r2, [sp, #8]
 8001dae:	e9cd c30e 	strd	ip, r3, [sp, #56]	; 0x38
 8001db2:	f000 fc81 	bl	80026b8 <HAL_GPIO_Init>
 8001db6:	4851      	ldr	r0, [pc, #324]	; (8001efc <HAL_SPI_MspInit+0x268>)
 8001db8:	6030      	str	r0, [r6, #0]
 8001dba:	f04f 61c0 	mov.w	r1, #100663296	; 0x6000000
 8001dbe:	f44f 6280 	mov.w	r2, #1024	; 0x400
 8001dc2:	f44f 3300 	mov.w	r3, #131072	; 0x20000
 8001dc6:	4630      	mov	r0, r6
 8001dc8:	60b4      	str	r4, [r6, #8]
 8001dca:	60f4      	str	r4, [r6, #12]
 8001dcc:	e9c6 4405 	strd	r4, r4, [r6, #20]
 8001dd0:	61f4      	str	r4, [r6, #28]
 8001dd2:	6274      	str	r4, [r6, #36]	; 0x24
 8001dd4:	6071      	str	r1, [r6, #4]
 8001dd6:	6132      	str	r2, [r6, #16]
 8001dd8:	6233      	str	r3, [r6, #32]
 8001dda:	f000 fafd 	bl	80023d8 <HAL_DMA_Init>
 8001dde:	2800      	cmp	r0, #0
 8001de0:	f040 8115 	bne.w	800200e <HAL_SPI_MspInit+0x37a>
 8001de4:	4c46      	ldr	r4, [pc, #280]	; (8001f00 <HAL_SPI_MspInit+0x26c>)
 8001de6:	4847      	ldr	r0, [pc, #284]	; (8001f04 <HAL_SPI_MspInit+0x270>)
 8001de8:	6020      	str	r0, [r4, #0]
 8001dea:	f04f 63c0 	mov.w	r3, #100663296	; 0x6000000
 8001dee:	2140      	movs	r1, #64	; 0x40
 8001df0:	f44f 6280 	mov.w	r2, #1024	; 0x400
 8001df4:	6063      	str	r3, [r4, #4]
 8001df6:	64ee      	str	r6, [r5, #76]	; 0x4c
 8001df8:	63b5      	str	r5, [r6, #56]	; 0x38
 8001dfa:	4620      	mov	r0, r4
 8001dfc:	2300      	movs	r3, #0
 8001dfe:	60a1      	str	r1, [r4, #8]
 8001e00:	6122      	str	r2, [r4, #16]
 8001e02:	60e3      	str	r3, [r4, #12]
 8001e04:	e9c4 3305 	strd	r3, r3, [r4, #20]
 8001e08:	e9c4 3307 	strd	r3, r3, [r4, #28]
 8001e0c:	6263      	str	r3, [r4, #36]	; 0x24
 8001e0e:	f000 fae3 	bl	80023d8 <HAL_DMA_Init>
 8001e12:	2800      	cmp	r0, #0
 8001e14:	d15a      	bne.n	8001ecc <HAL_SPI_MspInit+0x238>
 8001e16:	64ac      	str	r4, [r5, #72]	; 0x48
 8001e18:	63a5      	str	r5, [r4, #56]	; 0x38
 8001e1a:	b010      	add	sp, #64	; 0x40
 8001e1c:	e8bd 81f0 	ldmia.w	sp!, {r4, r5, r6, r7, r8, pc}
 8001e20:	4b31      	ldr	r3, [pc, #196]	; (8001ee8 <HAL_SPI_MspInit+0x254>)
 8001e22:	9405      	str	r4, [sp, #20]
 8001e24:	6c5a      	ldr	r2, [r3, #68]	; 0x44
 8001e26:	4e38      	ldr	r6, [pc, #224]	; (8001f08 <HAL_SPI_MspInit+0x274>)
 8001e28:	4838      	ldr	r0, [pc, #224]	; (8001f0c <HAL_SPI_MspInit+0x278>)
 8001e2a:	f442 5200 	orr.w	r2, r2, #8192	; 0x2000
 8001e2e:	645a      	str	r2, [r3, #68]	; 0x44
 8001e30:	6c5a      	ldr	r2, [r3, #68]	; 0x44
 8001e32:	f402 5200 	and.w	r2, r2, #8192	; 0x2000
 8001e36:	9205      	str	r2, [sp, #20]
 8001e38:	9a05      	ldr	r2, [sp, #20]
 8001e3a:	9406      	str	r4, [sp, #24]
 8001e3c:	6b1a      	ldr	r2, [r3, #48]	; 0x30
 8001e3e:	f042 0210 	orr.w	r2, r2, #16
 8001e42:	631a      	str	r2, [r3, #48]	; 0x30
 8001e44:	6b1b      	ldr	r3, [r3, #48]	; 0x30
 8001e46:	f003 0310 	and.w	r3, r3, #16
 8001e4a:	9306      	str	r3, [sp, #24]
 8001e4c:	f44f 43e0 	mov.w	r3, #28672	; 0x7000
 8001e50:	930b      	str	r3, [sp, #44]	; 0x2c
 8001e52:	2302      	movs	r3, #2
 8001e54:	a90b      	add	r1, sp, #44	; 0x2c
 8001e56:	930c      	str	r3, [sp, #48]	; 0x30
 8001e58:	f04f 0e03 	mov.w	lr, #3
 8001e5c:	2305      	movs	r3, #5
 8001e5e:	9a06      	ldr	r2, [sp, #24]
 8001e60:	e9cd e30e 	strd	lr, r3, [sp, #56]	; 0x38
 8001e64:	f000 fc28 	bl	80026b8 <HAL_GPIO_Init>
 8001e68:	4829      	ldr	r0, [pc, #164]	; (8001f10 <HAL_SPI_MspInit+0x27c>)
 8001e6a:	6030      	str	r0, [r6, #0]
 8001e6c:	f04f 6100 	mov.w	r1, #134217728	; 0x8000000
 8001e70:	f44f 6280 	mov.w	r2, #1024	; 0x400
 8001e74:	f44f 3380 	mov.w	r3, #65536	; 0x10000
 8001e78:	4630      	mov	r0, r6
 8001e7a:	60b4      	str	r4, [r6, #8]
 8001e7c:	60f4      	str	r4, [r6, #12]
 8001e7e:	e9c6 4405 	strd	r4, r4, [r6, #20]
 8001e82:	61f4      	str	r4, [r6, #28]
 8001e84:	6274      	str	r4, [r6, #36]	; 0x24
 8001e86:	6071      	str	r1, [r6, #4]
 8001e88:	6132      	str	r2, [r6, #16]
 8001e8a:	6233      	str	r3, [r6, #32]
 8001e8c:	f000 faa4 	bl	80023d8 <HAL_DMA_Init>
 8001e90:	2800      	cmp	r0, #0
 8001e92:	f040 80c2 	bne.w	800201a <HAL_SPI_MspInit+0x386>
 8001e96:	4c1f      	ldr	r4, [pc, #124]	; (8001f14 <HAL_SPI_MspInit+0x280>)
 8001e98:	4a1f      	ldr	r2, [pc, #124]	; (8001f18 <HAL_SPI_MspInit+0x284>)
 8001e9a:	64ee      	str	r6, [r5, #76]	; 0x4c
 8001e9c:	2340      	movs	r3, #64	; 0x40
 8001e9e:	f04f 6000 	mov.w	r0, #134217728	; 0x8000000
 8001ea2:	60a3      	str	r3, [r4, #8]
 8001ea4:	2300      	movs	r3, #0
 8001ea6:	63b5      	str	r5, [r6, #56]	; 0x38
 8001ea8:	f44f 6180 	mov.w	r1, #1024	; 0x400
 8001eac:	6022      	str	r2, [r4, #0]
 8001eae:	6060      	str	r0, [r4, #4]
 8001eb0:	f44f 3280 	mov.w	r2, #65536	; 0x10000
 8001eb4:	4620      	mov	r0, r4
 8001eb6:	6263      	str	r3, [r4, #36]	; 0x24
 8001eb8:	6121      	str	r1, [r4, #16]
 8001eba:	6222      	str	r2, [r4, #32]
 8001ebc:	60e3      	str	r3, [r4, #12]
 8001ebe:	e9c4 3305 	strd	r3, r3, [r4, #20]
 8001ec2:	61e3      	str	r3, [r4, #28]
 8001ec4:	f000 fa88 	bl	80023d8 <HAL_DMA_Init>
 8001ec8:	2800      	cmp	r0, #0
 8001eca:	d0a4      	beq.n	8001e16 <HAL_SPI_MspInit+0x182>
 8001ecc:	f7ff fbce 	bl	800166c <Error_Handler>
 8001ed0:	e7a1      	b.n	8001e16 <HAL_SPI_MspInit+0x182>
 8001ed2:	bf00      	nop
 8001ed4:	40013000 	.word	0x40013000
 8001ed8:	40003800 	.word	0x40003800
 8001edc:	40013400 	.word	0x40013400
 8001ee0:	40015000 	.word	0x40015000
 8001ee4:	40015400 	.word	0x40015400
 8001ee8:	40023800 	.word	0x40023800
 8001eec:	40021400 	.word	0x40021400
 8001ef0:	20000a34 	.word	0x20000a34
 8001ef4:	20000b2c 	.word	0x20000b2c
 8001ef8:	40020000 	.word	0x40020000
 8001efc:	40026440 	.word	0x40026440
 8001f00:	20000bec 	.word	0x20000bec
 8001f04:	40026458 	.word	0x40026458
 8001f08:	20000884 	.word	0x20000884
 8001f0c:	40021000 	.word	0x40021000
 8001f10:	40026410 	.word	0x40026410
 8001f14:	2000097c 	.word	0x2000097c
 8001f18:	40026428 	.word	0x40026428
 8001f1c:	40026470 	.word	0x40026470
 8001f20:	4b3f      	ldr	r3, [pc, #252]	; (8002020 <HAL_SPI_MspInit+0x38c>)
 8001f22:	9403      	str	r4, [sp, #12]
 8001f24:	6c1a      	ldr	r2, [r3, #64]	; 0x40
 8001f26:	4e3f      	ldr	r6, [pc, #252]	; (8002024 <HAL_SPI_MspInit+0x390>)
 8001f28:	483f      	ldr	r0, [pc, #252]	; (8002028 <HAL_SPI_MspInit+0x394>)
 8001f2a:	f442 4280 	orr.w	r2, r2, #16384	; 0x4000
 8001f2e:	641a      	str	r2, [r3, #64]	; 0x40
 8001f30:	6c1a      	ldr	r2, [r3, #64]	; 0x40
 8001f32:	f402 4280 	and.w	r2, r2, #16384	; 0x4000
 8001f36:	9203      	str	r2, [sp, #12]
 8001f38:	9a03      	ldr	r2, [sp, #12]
 8001f3a:	9404      	str	r4, [sp, #16]
 8001f3c:	6b1a      	ldr	r2, [r3, #48]	; 0x30
 8001f3e:	f042 0202 	orr.w	r2, r2, #2
 8001f42:	631a      	str	r2, [r3, #48]	; 0x30
 8001f44:	6b1b      	ldr	r3, [r3, #48]	; 0x30
 8001f46:	f003 0302 	and.w	r3, r3, #2
 8001f4a:	9304      	str	r3, [sp, #16]
 8001f4c:	f44f 4360 	mov.w	r3, #57344	; 0xe000
 8001f50:	930b      	str	r3, [sp, #44]	; 0x2c
 8001f52:	2302      	movs	r3, #2
 8001f54:	9a04      	ldr	r2, [sp, #16]
 8001f56:	930c      	str	r3, [sp, #48]	; 0x30
 8001f58:	2203      	movs	r2, #3
 8001f5a:	2305      	movs	r3, #5
 8001f5c:	a90b      	add	r1, sp, #44	; 0x2c
 8001f5e:	e9cd 230e 	strd	r2, r3, [sp, #56]	; 0x38
 8001f62:	f000 fba9 	bl	80026b8 <HAL_GPIO_Init>
 8001f66:	4a31      	ldr	r2, [pc, #196]	; (800202c <HAL_SPI_MspInit+0x398>)
 8001f68:	6074      	str	r4, [r6, #4]
 8001f6a:	f44f 6380 	mov.w	r3, #1024	; 0x400
 8001f6e:	4630      	mov	r0, r6
 8001f70:	e9c6 4402 	strd	r4, r4, [r6, #8]
 8001f74:	e9c6 4405 	strd	r4, r4, [r6, #20]
 8001f78:	e9c6 4407 	strd	r4, r4, [r6, #28]
 8001f7c:	6274      	str	r4, [r6, #36]	; 0x24
 8001f7e:	6032      	str	r2, [r6, #0]
 8001f80:	6133      	str	r3, [r6, #16]
 8001f82:	f000 fa29 	bl	80023d8 <HAL_DMA_Init>
 8001f86:	2800      	cmp	r0, #0
 8001f88:	d144      	bne.n	8002014 <HAL_SPI_MspInit+0x380>
 8001f8a:	4c29      	ldr	r4, [pc, #164]	; (8002030 <HAL_SPI_MspInit+0x39c>)
 8001f8c:	4b29      	ldr	r3, [pc, #164]	; (8002034 <HAL_SPI_MspInit+0x3a0>)
 8001f8e:	6023      	str	r3, [r4, #0]
 8001f90:	2140      	movs	r1, #64	; 0x40
 8001f92:	f44f 6280 	mov.w	r2, #1024	; 0x400
 8001f96:	2300      	movs	r3, #0
 8001f98:	64ee      	str	r6, [r5, #76]	; 0x4c
 8001f9a:	63b5      	str	r5, [r6, #56]	; 0x38
 8001f9c:	4620      	mov	r0, r4
 8001f9e:	60a1      	str	r1, [r4, #8]
 8001fa0:	6122      	str	r2, [r4, #16]
 8001fa2:	6063      	str	r3, [r4, #4]
 8001fa4:	e72d      	b.n	8001e02 <HAL_SPI_MspInit+0x16e>
 8001fa6:	4b1e      	ldr	r3, [pc, #120]	; (8002020 <HAL_SPI_MspInit+0x38c>)
 8001fa8:	9409      	str	r4, [sp, #36]	; 0x24
 8001faa:	6c5a      	ldr	r2, [r3, #68]	; 0x44
 8001fac:	4e22      	ldr	r6, [pc, #136]	; (8002038 <HAL_SPI_MspInit+0x3a4>)
 8001fae:	4823      	ldr	r0, [pc, #140]	; (800203c <HAL_SPI_MspInit+0x3a8>)
 8001fb0:	f442 1200 	orr.w	r2, r2, #2097152	; 0x200000
 8001fb4:	645a      	str	r2, [r3, #68]	; 0x44
 8001fb6:	6c5a      	ldr	r2, [r3, #68]	; 0x44
 8001fb8:	f402 1200 	and.w	r2, r2, #2097152	; 0x200000
 8001fbc:	9209      	str	r2, [sp, #36]	; 0x24
 8001fbe:	9a09      	ldr	r2, [sp, #36]	; 0x24
 8001fc0:	940a      	str	r4, [sp, #40]	; 0x28
 8001fc2:	6b1a      	ldr	r2, [r3, #48]	; 0x30
 8001fc4:	f042 0240 	orr.w	r2, r2, #64	; 0x40
 8001fc8:	631a      	str	r2, [r3, #48]	; 0x30
 8001fca:	6b1b      	ldr	r3, [r3, #48]	; 0x30
 8001fcc:	f003 0340 	and.w	r3, r3, #64	; 0x40
 8001fd0:	930a      	str	r3, [sp, #40]	; 0x28
 8001fd2:	f44f 43e0 	mov.w	r3, #28672	; 0x7000
 8001fd6:	930b      	str	r3, [sp, #44]	; 0x2c
 8001fd8:	2302      	movs	r3, #2
 8001fda:	a90b      	add	r1, sp, #44	; 0x2c
 8001fdc:	930c      	str	r3, [sp, #48]	; 0x30
 8001fde:	2703      	movs	r7, #3
 8001fe0:	2305      	movs	r3, #5
 8001fe2:	9a0a      	ldr	r2, [sp, #40]	; 0x28
 8001fe4:	e9cd 730e 	strd	r7, r3, [sp, #56]	; 0x38
 8001fe8:	f000 fb66 	bl	80026b8 <HAL_GPIO_Init>
 8001fec:	4b14      	ldr	r3, [pc, #80]	; (8002040 <HAL_SPI_MspInit+0x3ac>)
 8001fee:	6033      	str	r3, [r6, #0]
 8001ff0:	f04f 7000 	mov.w	r0, #33554432	; 0x2000000
 8001ff4:	6070      	str	r0, [r6, #4]
 8001ff6:	60f4      	str	r4, [r6, #12]
 8001ff8:	2140      	movs	r1, #64	; 0x40
 8001ffa:	e9c6 4405 	strd	r4, r4, [r6, #20]
 8001ffe:	61f4      	str	r4, [r6, #28]
 8002000:	6274      	str	r4, [r6, #36]	; 0x24
 8002002:	f44f 6280 	mov.w	r2, #1024	; 0x400
 8002006:	f44f 3340 	mov.w	r3, #196608	; 0x30000
 800200a:	4630      	mov	r0, r6
 800200c:	e6a3      	b.n	8001d56 <HAL_SPI_MspInit+0xc2>
 800200e:	f7ff fb2d 	bl	800166c <Error_Handler>
 8002012:	e6e7      	b.n	8001de4 <HAL_SPI_MspInit+0x150>
 8002014:	f7ff fb2a 	bl	800166c <Error_Handler>
 8002018:	e7b7      	b.n	8001f8a <HAL_SPI_MspInit+0x2f6>
 800201a:	f7ff fb27 	bl	800166c <Error_Handler>
 800201e:	e73a      	b.n	8001e96 <HAL_SPI_MspInit+0x202>
 8002020:	40023800 	.word	0x40023800
 8002024:	20000824 	.word	0x20000824
 8002028:	40020400 	.word	0x40020400
 800202c:	40026058 	.word	0x40026058
 8002030:	20000b8c 	.word	0x20000b8c
 8002034:	40026070 	.word	0x40026070
 8002038:	20000c4c 	.word	0x20000c4c
 800203c:	40021800 	.word	0x40021800
 8002040:	40026488 	.word	0x40026488

08002044 <HAL_TIM_Base_MspInit>:
 8002044:	b500      	push	{lr}
 8002046:	6803      	ldr	r3, [r0, #0]
 8002048:	f1b3 4f80 	cmp.w	r3, #1073741824	; 0x40000000
 800204c:	b085      	sub	sp, #20
 800204e:	d008      	beq.n	8002062 <HAL_TIM_Base_MspInit+0x1e>
 8002050:	4a25      	ldr	r2, [pc, #148]	; (80020e8 <HAL_TIM_Base_MspInit+0xa4>)
 8002052:	4293      	cmp	r3, r2
 8002054:	d032      	beq.n	80020bc <HAL_TIM_Base_MspInit+0x78>
 8002056:	4a25      	ldr	r2, [pc, #148]	; (80020ec <HAL_TIM_Base_MspInit+0xa8>)
 8002058:	4293      	cmp	r3, r2
 800205a:	d019      	beq.n	8002090 <HAL_TIM_Base_MspInit+0x4c>
 800205c:	b005      	add	sp, #20
 800205e:	f85d fb04 	ldr.w	pc, [sp], #4
 8002062:	2200      	movs	r2, #0
 8002064:	f503 330e 	add.w	r3, r3, #145408	; 0x23800
 8002068:	9201      	str	r2, [sp, #4]
 800206a:	6c19      	ldr	r1, [r3, #64]	; 0x40
 800206c:	f041 0101 	orr.w	r1, r1, #1
 8002070:	6419      	str	r1, [r3, #64]	; 0x40
 8002072:	6c1b      	ldr	r3, [r3, #64]	; 0x40
 8002074:	f003 0301 	and.w	r3, r3, #1
 8002078:	9301      	str	r3, [sp, #4]
 800207a:	4611      	mov	r1, r2
 800207c:	201c      	movs	r0, #28
 800207e:	9b01      	ldr	r3, [sp, #4]
 8002080:	f000 f94c 	bl	800231c <HAL_NVIC_SetPriority>
 8002084:	201c      	movs	r0, #28
 8002086:	b005      	add	sp, #20
 8002088:	f85d eb04 	ldr.w	lr, [sp], #4
 800208c:	f000 b97c 	b.w	8002388 <HAL_NVIC_EnableIRQ>
 8002090:	2200      	movs	r2, #0
 8002092:	4b17      	ldr	r3, [pc, #92]	; (80020f0 <HAL_TIM_Base_MspInit+0xac>)
 8002094:	9203      	str	r2, [sp, #12]
 8002096:	6c19      	ldr	r1, [r3, #64]	; 0x40
 8002098:	f041 0104 	orr.w	r1, r1, #4
 800209c:	6419      	str	r1, [r3, #64]	; 0x40
 800209e:	6c1b      	ldr	r3, [r3, #64]	; 0x40
 80020a0:	f003 0304 	and.w	r3, r3, #4
 80020a4:	9303      	str	r3, [sp, #12]
 80020a6:	4611      	mov	r1, r2
 80020a8:	201e      	movs	r0, #30
 80020aa:	9b03      	ldr	r3, [sp, #12]
 80020ac:	f000 f936 	bl	800231c <HAL_NVIC_SetPriority>
 80020b0:	201e      	movs	r0, #30
 80020b2:	b005      	add	sp, #20
 80020b4:	f85d eb04 	ldr.w	lr, [sp], #4
 80020b8:	f000 b966 	b.w	8002388 <HAL_NVIC_EnableIRQ>
 80020bc:	2200      	movs	r2, #0
 80020be:	4b0c      	ldr	r3, [pc, #48]	; (80020f0 <HAL_TIM_Base_MspInit+0xac>)
 80020c0:	9202      	str	r2, [sp, #8]
 80020c2:	6c19      	ldr	r1, [r3, #64]	; 0x40
 80020c4:	f041 0102 	orr.w	r1, r1, #2
 80020c8:	6419      	str	r1, [r3, #64]	; 0x40
 80020ca:	6c1b      	ldr	r3, [r3, #64]	; 0x40
 80020cc:	f003 0302 	and.w	r3, r3, #2
 80020d0:	9302      	str	r3, [sp, #8]
 80020d2:	4611      	mov	r1, r2
 80020d4:	201d      	movs	r0, #29
 80020d6:	9b02      	ldr	r3, [sp, #8]
 80020d8:	f000 f920 	bl	800231c <HAL_NVIC_SetPriority>
 80020dc:	201d      	movs	r0, #29
 80020de:	b005      	add	sp, #20
 80020e0:	f85d eb04 	ldr.w	lr, [sp], #4
 80020e4:	f000 b950 	b.w	8002388 <HAL_NVIC_EnableIRQ>
 80020e8:	40000400 	.word	0x40000400
 80020ec:	40000800 	.word	0x40000800
 80020f0:	40023800 	.word	0x40023800

080020f4 <NMI_Handler>:
 80020f4:	4770      	bx	lr
 80020f6:	bf00      	nop

080020f8 <HardFault_Handler>:
 80020f8:	e7fe      	b.n	80020f8 <HardFault_Handler>
 80020fa:	bf00      	nop

080020fc <MemManage_Handler>:
 80020fc:	e7fe      	b.n	80020fc <MemManage_Handler>
 80020fe:	bf00      	nop

08002100 <BusFault_Handler>:
 8002100:	e7fe      	b.n	8002100 <BusFault_Handler>
 8002102:	bf00      	nop

08002104 <UsageFault_Handler>:
 8002104:	e7fe      	b.n	8002104 <UsageFault_Handler>
 8002106:	bf00      	nop

08002108 <SVC_Handler>:
 8002108:	4770      	bx	lr
 800210a:	bf00      	nop

0800210c <DebugMon_Handler>:
 800210c:	4770      	bx	lr
 800210e:	bf00      	nop

08002110 <PendSV_Handler>:
 8002110:	4770      	bx	lr
 8002112:	bf00      	nop

08002114 <SysTick_Handler>:
 8002114:	f000 b8cc 	b.w	80022b0 <HAL_IncTick>

08002118 <EXTI1_IRQHandler>:
 8002118:	2002      	movs	r0, #2
 800211a:	f000 bc15 	b.w	8002948 <HAL_GPIO_EXTI_IRQHandler>
 800211e:	bf00      	nop

08002120 <EXTI9_5_IRQHandler>:
 8002120:	2040      	movs	r0, #64	; 0x40
 8002122:	f000 bc11 	b.w	8002948 <HAL_GPIO_EXTI_IRQHandler>
 8002126:	bf00      	nop

08002128 <TIM4_IRQHandler>:
 8002128:	4801      	ldr	r0, [pc, #4]	; (8002130 <TIM4_IRQHandler+0x8>)
 800212a:	f001 b86b 	b.w	8003204 <HAL_TIM_IRQHandler>
 800212e:	bf00      	nop
 8002130:	200007e4 	.word	0x200007e4

08002134 <_getpid>:
 8002134:	2001      	movs	r0, #1
 8002136:	4770      	bx	lr

08002138 <_kill>:
 8002138:	b508      	push	{r3, lr}
 800213a:	f001 f95d 	bl	80033f8 <__errno>
 800213e:	2316      	movs	r3, #22
 8002140:	6003      	str	r3, [r0, #0]
 8002142:	f04f 30ff 	mov.w	r0, #4294967295
 8002146:	bd08      	pop	{r3, pc}

08002148 <_exit>:
 8002148:	b508      	push	{r3, lr}
 800214a:	f001 f955 	bl	80033f8 <__errno>
 800214e:	2316      	movs	r3, #22
 8002150:	6003      	str	r3, [r0, #0]
 8002152:	e7fe      	b.n	8002152 <_exit+0xa>

08002154 <_sbrk>:
 8002154:	4a0c      	ldr	r2, [pc, #48]	; (8002188 <_sbrk+0x34>)
 8002156:	b508      	push	{r3, lr}
 8002158:	6813      	ldr	r3, [r2, #0]
 800215a:	b133      	cbz	r3, 800216a <_sbrk+0x16>
 800215c:	4418      	add	r0, r3
 800215e:	4669      	mov	r1, sp
 8002160:	4288      	cmp	r0, r1
 8002162:	d808      	bhi.n	8002176 <_sbrk+0x22>
 8002164:	6010      	str	r0, [r2, #0]
 8002166:	4618      	mov	r0, r3
 8002168:	bd08      	pop	{r3, pc}
 800216a:	4b08      	ldr	r3, [pc, #32]	; (800218c <_sbrk+0x38>)
 800216c:	6013      	str	r3, [r2, #0]
 800216e:	4418      	add	r0, r3
 8002170:	4669      	mov	r1, sp
 8002172:	4288      	cmp	r0, r1
 8002174:	d9f6      	bls.n	8002164 <_sbrk+0x10>
 8002176:	f001 f93f 	bl	80033f8 <__errno>
 800217a:	230c      	movs	r3, #12
 800217c:	6003      	str	r3, [r0, #0]
 800217e:	f04f 33ff 	mov.w	r3, #4294967295
 8002182:	4618      	mov	r0, r3
 8002184:	bd08      	pop	{r3, pc}
 8002186:	bf00      	nop
 8002188:	20000724 	.word	0x20000724
 800218c:	20000cb8 	.word	0x20000cb8

08002190 <SystemInit>:
 8002190:	4910      	ldr	r1, [pc, #64]	; (80021d4 <SystemInit+0x44>)
 8002192:	4b11      	ldr	r3, [pc, #68]	; (80021d8 <SystemInit+0x48>)
 8002194:	f8d1 2088 	ldr.w	r2, [r1, #136]	; 0x88
 8002198:	f442 0270 	orr.w	r2, r2, #15728640	; 0xf00000
 800219c:	b410      	push	{r4}
 800219e:	f8c1 2088 	str.w	r2, [r1, #136]	; 0x88
 80021a2:	681a      	ldr	r2, [r3, #0]
 80021a4:	4c0d      	ldr	r4, [pc, #52]	; (80021dc <SystemInit+0x4c>)
 80021a6:	2000      	movs	r0, #0
 80021a8:	f042 0201 	orr.w	r2, r2, #1
 80021ac:	601a      	str	r2, [r3, #0]
 80021ae:	6098      	str	r0, [r3, #8]
 80021b0:	681a      	ldr	r2, [r3, #0]
 80021b2:	f022 7284 	bic.w	r2, r2, #17301504	; 0x1080000
 80021b6:	f422 3280 	bic.w	r2, r2, #65536	; 0x10000
 80021ba:	601a      	str	r2, [r3, #0]
 80021bc:	605c      	str	r4, [r3, #4]
 80021be:	681a      	ldr	r2, [r3, #0]
 80021c0:	f04f 6400 	mov.w	r4, #134217728	; 0x8000000
 80021c4:	f422 2280 	bic.w	r2, r2, #262144	; 0x40000
 80021c8:	601a      	str	r2, [r3, #0]
 80021ca:	60d8      	str	r0, [r3, #12]
 80021cc:	608c      	str	r4, [r1, #8]
 80021ce:	f85d 4b04 	ldr.w	r4, [sp], #4
 80021d2:	4770      	bx	lr
 80021d4:	e000ed00 	.word	0xe000ed00
 80021d8:	40023800 	.word	0x40023800
 80021dc:	24003010 	.word	0x24003010

080021e0 <Reset_Handler>:
 80021e0:	f8df d034 	ldr.w	sp, [pc, #52]	; 8002218 <LoopFillZerobss+0x14>
 80021e4:	2100      	movs	r1, #0
 80021e6:	e003      	b.n	80021f0 <LoopCopyDataInit>

080021e8 <CopyDataInit>:
 80021e8:	4b0c      	ldr	r3, [pc, #48]	; (800221c <LoopFillZerobss+0x18>)
 80021ea:	585b      	ldr	r3, [r3, r1]
 80021ec:	5043      	str	r3, [r0, r1]
 80021ee:	3104      	adds	r1, #4

080021f0 <LoopCopyDataInit>:
 80021f0:	480b      	ldr	r0, [pc, #44]	; (8002220 <LoopFillZerobss+0x1c>)
 80021f2:	4b0c      	ldr	r3, [pc, #48]	; (8002224 <LoopFillZerobss+0x20>)
 80021f4:	1842      	adds	r2, r0, r1
 80021f6:	429a      	cmp	r2, r3
 80021f8:	d3f6      	bcc.n	80021e8 <CopyDataInit>
 80021fa:	4a0b      	ldr	r2, [pc, #44]	; (8002228 <LoopFillZerobss+0x24>)
 80021fc:	e002      	b.n	8002204 <LoopFillZerobss>

080021fe <FillZerobss>:
 80021fe:	2300      	movs	r3, #0
 8002200:	f842 3b04 	str.w	r3, [r2], #4

08002204 <LoopFillZerobss>:
 8002204:	4b09      	ldr	r3, [pc, #36]	; (800222c <LoopFillZerobss+0x28>)
 8002206:	429a      	cmp	r2, r3
 8002208:	d3f9      	bcc.n	80021fe <FillZerobss>
 800220a:	f7ff ffc1 	bl	8002190 <SystemInit>
 800220e:	f001 f8f9 	bl	8003404 <__libc_init_array>
 8002212:	f7fe ff6b 	bl	80010ec <main>
 8002216:	4770      	bx	lr
 8002218:	20030000 	.word	0x20030000
 800221c:	08003da4 	.word	0x08003da4
 8002220:	20000678 	.word	0x20000678
 8002224:	200006e8 	.word	0x200006e8
 8002228:	200006e8 	.word	0x200006e8
 800222c:	20000cb4 	.word	0x20000cb4

08002230 <ADC_IRQHandler>:
 8002230:	e7fe      	b.n	8002230 <ADC_IRQHandler>
	...

08002234 <HAL_InitTick>:
 8002234:	b538      	push	{r3, r4, r5, lr}
 8002236:	4a0e      	ldr	r2, [pc, #56]	; (8002270 <HAL_InitTick+0x3c>)
 8002238:	4b0e      	ldr	r3, [pc, #56]	; (8002274 <HAL_InitTick+0x40>)
 800223a:	7812      	ldrb	r2, [r2, #0]
 800223c:	681b      	ldr	r3, [r3, #0]
 800223e:	4605      	mov	r5, r0
 8002240:	f44f 707a 	mov.w	r0, #1000	; 0x3e8
 8002244:	fbb0 f0f2 	udiv	r0, r0, r2
 8002248:	fbb3 f0f0 	udiv	r0, r3, r0
 800224c:	f000 f8aa 	bl	80023a4 <HAL_SYSTICK_Config>
 8002250:	b908      	cbnz	r0, 8002256 <HAL_InitTick+0x22>
 8002252:	2d0f      	cmp	r5, #15
 8002254:	d901      	bls.n	800225a <HAL_InitTick+0x26>
 8002256:	2001      	movs	r0, #1
 8002258:	bd38      	pop	{r3, r4, r5, pc}
 800225a:	4604      	mov	r4, r0
 800225c:	4602      	mov	r2, r0
 800225e:	4629      	mov	r1, r5
 8002260:	f04f 30ff 	mov.w	r0, #4294967295
 8002264:	f000 f85a 	bl	800231c <HAL_NVIC_SetPriority>
 8002268:	4b03      	ldr	r3, [pc, #12]	; (8002278 <HAL_InitTick+0x44>)
 800226a:	4620      	mov	r0, r4
 800226c:	601d      	str	r5, [r3, #0]
 800226e:	bd38      	pop	{r3, r4, r5, pc}
 8002270:	2000067c 	.word	0x2000067c
 8002274:	20000678 	.word	0x20000678
 8002278:	20000680 	.word	0x20000680

0800227c <HAL_Init>:
 800227c:	b508      	push	{r3, lr}
 800227e:	4b0b      	ldr	r3, [pc, #44]	; (80022ac <HAL_Init+0x30>)
 8002280:	681a      	ldr	r2, [r3, #0]
 8002282:	f442 7200 	orr.w	r2, r2, #512	; 0x200
 8002286:	601a      	str	r2, [r3, #0]
 8002288:	681a      	ldr	r2, [r3, #0]
 800228a:	f442 6280 	orr.w	r2, r2, #1024	; 0x400
 800228e:	601a      	str	r2, [r3, #0]
 8002290:	681a      	ldr	r2, [r3, #0]
 8002292:	f442 7280 	orr.w	r2, r2, #256	; 0x100
 8002296:	601a      	str	r2, [r3, #0]
 8002298:	2003      	movs	r0, #3
 800229a:	f000 f82d 	bl	80022f8 <HAL_NVIC_SetPriorityGrouping>
 800229e:	2000      	movs	r0, #0
 80022a0:	f7ff ffc8 	bl	8002234 <HAL_InitTick>
 80022a4:	f7ff fcda 	bl	8001c5c <HAL_MspInit>
 80022a8:	2000      	movs	r0, #0
 80022aa:	bd08      	pop	{r3, pc}
 80022ac:	40023c00 	.word	0x40023c00

080022b0 <HAL_IncTick>:
 80022b0:	4a03      	ldr	r2, [pc, #12]	; (80022c0 <HAL_IncTick+0x10>)
 80022b2:	4b04      	ldr	r3, [pc, #16]	; (80022c4 <HAL_IncTick+0x14>)
 80022b4:	6811      	ldr	r1, [r2, #0]
 80022b6:	781b      	ldrb	r3, [r3, #0]
 80022b8:	440b      	add	r3, r1
 80022ba:	6013      	str	r3, [r2, #0]
 80022bc:	4770      	bx	lr
 80022be:	bf00      	nop
 80022c0:	20000cac 	.word	0x20000cac
 80022c4:	2000067c 	.word	0x2000067c

080022c8 <HAL_GetTick>:
 80022c8:	4b01      	ldr	r3, [pc, #4]	; (80022d0 <HAL_GetTick+0x8>)
 80022ca:	6818      	ldr	r0, [r3, #0]
 80022cc:	4770      	bx	lr
 80022ce:	bf00      	nop
 80022d0:	20000cac 	.word	0x20000cac

080022d4 <HAL_Delay>:
 80022d4:	b538      	push	{r3, r4, r5, lr}
 80022d6:	4604      	mov	r4, r0
 80022d8:	f7ff fff6 	bl	80022c8 <HAL_GetTick>
 80022dc:	1c63      	adds	r3, r4, #1
 80022de:	4605      	mov	r5, r0
 80022e0:	d002      	beq.n	80022e8 <HAL_Delay+0x14>
 80022e2:	4b04      	ldr	r3, [pc, #16]	; (80022f4 <HAL_Delay+0x20>)
 80022e4:	781b      	ldrb	r3, [r3, #0]
 80022e6:	441c      	add	r4, r3
 80022e8:	f7ff ffee 	bl	80022c8 <HAL_GetTick>
 80022ec:	1b40      	subs	r0, r0, r5
 80022ee:	42a0      	cmp	r0, r4
 80022f0:	d3fa      	bcc.n	80022e8 <HAL_Delay+0x14>
 80022f2:	bd38      	pop	{r3, r4, r5, pc}
 80022f4:	2000067c 	.word	0x2000067c

080022f8 <HAL_NVIC_SetPriorityGrouping>:
 80022f8:	4a07      	ldr	r2, [pc, #28]	; (8002318 <HAL_NVIC_SetPriorityGrouping+0x20>)
 80022fa:	68d3      	ldr	r3, [r2, #12]
 80022fc:	f64f 01ff 	movw	r1, #63743	; 0xf8ff
 8002300:	400b      	ands	r3, r1
 8002302:	0200      	lsls	r0, r0, #8
 8002304:	f043 63bf 	orr.w	r3, r3, #100139008	; 0x5f80000
 8002308:	f400 60e0 	and.w	r0, r0, #1792	; 0x700
 800230c:	f443 3300 	orr.w	r3, r3, #131072	; 0x20000
 8002310:	4303      	orrs	r3, r0
 8002312:	60d3      	str	r3, [r2, #12]
 8002314:	4770      	bx	lr
 8002316:	bf00      	nop
 8002318:	e000ed00 	.word	0xe000ed00

0800231c <HAL_NVIC_SetPriority>:
 800231c:	4b18      	ldr	r3, [pc, #96]	; (8002380 <HAL_NVIC_SetPriority+0x64>)
 800231e:	68db      	ldr	r3, [r3, #12]
 8002320:	f3c3 2302 	ubfx	r3, r3, #8, #3
 8002324:	b430      	push	{r4, r5}
 8002326:	f1c3 0507 	rsb	r5, r3, #7
 800232a:	2d04      	cmp	r5, #4
 800232c:	f103 0404 	add.w	r4, r3, #4
 8002330:	bf28      	it	cs
 8002332:	2504      	movcs	r5, #4
 8002334:	2c06      	cmp	r4, #6
 8002336:	d919      	bls.n	800236c <HAL_NVIC_SetPriority+0x50>
 8002338:	3b03      	subs	r3, #3
 800233a:	f04f 34ff 	mov.w	r4, #4294967295
 800233e:	409c      	lsls	r4, r3
 8002340:	ea22 0404 	bic.w	r4, r2, r4
 8002344:	f04f 32ff 	mov.w	r2, #4294967295
 8002348:	40aa      	lsls	r2, r5
 800234a:	ea21 0102 	bic.w	r1, r1, r2
 800234e:	fa01 f203 	lsl.w	r2, r1, r3
 8002352:	4322      	orrs	r2, r4
 8002354:	0112      	lsls	r2, r2, #4
 8002356:	2800      	cmp	r0, #0
 8002358:	b2d2      	uxtb	r2, r2
 800235a:	db0a      	blt.n	8002372 <HAL_NVIC_SetPriority+0x56>
 800235c:	f100 4060 	add.w	r0, r0, #3758096384	; 0xe0000000
 8002360:	f500 4061 	add.w	r0, r0, #57600	; 0xe100
 8002364:	f880 2300 	strb.w	r2, [r0, #768]	; 0x300
 8002368:	bc30      	pop	{r4, r5}
 800236a:	4770      	bx	lr
 800236c:	2400      	movs	r4, #0
 800236e:	4623      	mov	r3, r4
 8002370:	e7e8      	b.n	8002344 <HAL_NVIC_SetPriority+0x28>
 8002372:	4b04      	ldr	r3, [pc, #16]	; (8002384 <HAL_NVIC_SetPriority+0x68>)
 8002374:	f000 000f 	and.w	r0, r0, #15
 8002378:	4403      	add	r3, r0
 800237a:	761a      	strb	r2, [r3, #24]
 800237c:	bc30      	pop	{r4, r5}
 800237e:	4770      	bx	lr
 8002380:	e000ed00 	.word	0xe000ed00
 8002384:	e000ecfc 	.word	0xe000ecfc

08002388 <HAL_NVIC_EnableIRQ>:
 8002388:	2800      	cmp	r0, #0
 800238a:	db07      	blt.n	800239c <HAL_NVIC_EnableIRQ+0x14>
 800238c:	f000 011f 	and.w	r1, r0, #31
 8002390:	2301      	movs	r3, #1
 8002392:	0940      	lsrs	r0, r0, #5
 8002394:	4a02      	ldr	r2, [pc, #8]	; (80023a0 <HAL_NVIC_EnableIRQ+0x18>)
 8002396:	408b      	lsls	r3, r1
 8002398:	f842 3020 	str.w	r3, [r2, r0, lsl #2]
 800239c:	4770      	bx	lr
 800239e:	bf00      	nop
 80023a0:	e000e100 	.word	0xe000e100

080023a4 <HAL_SYSTICK_Config>:
 80023a4:	3801      	subs	r0, #1
 80023a6:	f1b0 7f80 	cmp.w	r0, #16777216	; 0x1000000
 80023aa:	d20e      	bcs.n	80023ca <HAL_SYSTICK_Config+0x26>
 80023ac:	4b08      	ldr	r3, [pc, #32]	; (80023d0 <HAL_SYSTICK_Config+0x2c>)
 80023ae:	b410      	push	{r4}
 80023b0:	4c08      	ldr	r4, [pc, #32]	; (80023d4 <HAL_SYSTICK_Config+0x30>)
 80023b2:	6058      	str	r0, [r3, #4]
 80023b4:	20f0      	movs	r0, #240	; 0xf0
 80023b6:	f884 0023 	strb.w	r0, [r4, #35]	; 0x23
 80023ba:	2200      	movs	r2, #0
 80023bc:	2107      	movs	r1, #7
 80023be:	4610      	mov	r0, r2
 80023c0:	609a      	str	r2, [r3, #8]
 80023c2:	6019      	str	r1, [r3, #0]
 80023c4:	f85d 4b04 	ldr.w	r4, [sp], #4
 80023c8:	4770      	bx	lr
 80023ca:	2001      	movs	r0, #1
 80023cc:	4770      	bx	lr
 80023ce:	bf00      	nop
 80023d0:	e000e010 	.word	0xe000e010
 80023d4:	e000ed00 	.word	0xe000ed00

080023d8 <HAL_DMA_Init>:
 80023d8:	b5f8      	push	{r3, r4, r5, r6, r7, lr}
 80023da:	4604      	mov	r4, r0
 80023dc:	f7ff ff74 	bl	80022c8 <HAL_GetTick>
 80023e0:	2c00      	cmp	r4, #0
 80023e2:	d054      	beq.n	800248e <HAL_DMA_Init+0xb6>
 80023e4:	2202      	movs	r2, #2
 80023e6:	6823      	ldr	r3, [r4, #0]
 80023e8:	f884 2035 	strb.w	r2, [r4, #53]	; 0x35
 80023ec:	681a      	ldr	r2, [r3, #0]
 80023ee:	2100      	movs	r1, #0
 80023f0:	f022 0201 	bic.w	r2, r2, #1
 80023f4:	f884 1034 	strb.w	r1, [r4, #52]	; 0x34
 80023f8:	4605      	mov	r5, r0
 80023fa:	601a      	str	r2, [r3, #0]
 80023fc:	e005      	b.n	800240a <HAL_DMA_Init+0x32>
 80023fe:	f7ff ff63 	bl	80022c8 <HAL_GetTick>
 8002402:	1b40      	subs	r0, r0, r5
 8002404:	2805      	cmp	r0, #5
 8002406:	d83b      	bhi.n	8002480 <HAL_DMA_Init+0xa8>
 8002408:	6823      	ldr	r3, [r4, #0]
 800240a:	681a      	ldr	r2, [r3, #0]
 800240c:	07d1      	lsls	r1, r2, #31
 800240e:	d4f6      	bmi.n	80023fe <HAL_DMA_Init+0x26>
 8002410:	e9d4 2601 	ldrd	r2, r6, [r4, #4]
 8002414:	e9d4 5103 	ldrd	r5, r1, [r4, #12]
 8002418:	4332      	orrs	r2, r6
 800241a:	6960      	ldr	r0, [r4, #20]
 800241c:	681f      	ldr	r7, [r3, #0]
 800241e:	432a      	orrs	r2, r5
 8002420:	e9d4 6506 	ldrd	r6, r5, [r4, #24]
 8002424:	430a      	orrs	r2, r1
 8002426:	4302      	orrs	r2, r0
 8002428:	6a21      	ldr	r1, [r4, #32]
 800242a:	4835      	ldr	r0, [pc, #212]	; (8002500 <HAL_DMA_Init+0x128>)
 800242c:	4332      	orrs	r2, r6
 800242e:	432a      	orrs	r2, r5
 8002430:	430a      	orrs	r2, r1
 8002432:	6a61      	ldr	r1, [r4, #36]	; 0x24
 8002434:	4038      	ands	r0, r7
 8002436:	2904      	cmp	r1, #4
 8002438:	ea42 0200 	orr.w	r2, r2, r0
 800243c:	d029      	beq.n	8002492 <HAL_DMA_Init+0xba>
 800243e:	601a      	str	r2, [r3, #0]
 8002440:	695a      	ldr	r2, [r3, #20]
 8002442:	f022 0207 	bic.w	r2, r2, #7
 8002446:	4311      	orrs	r1, r2
 8002448:	b2da      	uxtb	r2, r3
 800244a:	482e      	ldr	r0, [pc, #184]	; (8002504 <HAL_DMA_Init+0x12c>)
 800244c:	6159      	str	r1, [r3, #20]
 800244e:	3a10      	subs	r2, #16
 8002450:	fba0 1202 	umull	r1, r2, r0, r2
 8002454:	0912      	lsrs	r2, r2, #4
 8002456:	492c      	ldr	r1, [pc, #176]	; (8002508 <HAL_DMA_Init+0x130>)
 8002458:	f423 737f 	bic.w	r3, r3, #1020	; 0x3fc
 800245c:	5c89      	ldrb	r1, [r1, r2]
 800245e:	65e1      	str	r1, [r4, #92]	; 0x5c
 8002460:	f023 0303 	bic.w	r3, r3, #3
 8002464:	2a03      	cmp	r2, #3
 8002466:	bf88      	it	hi
 8002468:	3304      	addhi	r3, #4
 800246a:	223f      	movs	r2, #63	; 0x3f
 800246c:	408a      	lsls	r2, r1
 800246e:	2501      	movs	r5, #1
 8002470:	2100      	movs	r1, #0
 8002472:	65a3      	str	r3, [r4, #88]	; 0x58
 8002474:	4608      	mov	r0, r1
 8002476:	609a      	str	r2, [r3, #8]
 8002478:	6561      	str	r1, [r4, #84]	; 0x54
 800247a:	f884 5035 	strb.w	r5, [r4, #53]	; 0x35
 800247e:	bdf8      	pop	{r3, r4, r5, r6, r7, pc}
 8002480:	2303      	movs	r3, #3
 8002482:	2220      	movs	r2, #32
 8002484:	6562      	str	r2, [r4, #84]	; 0x54
 8002486:	4618      	mov	r0, r3
 8002488:	f884 3035 	strb.w	r3, [r4, #53]	; 0x35
 800248c:	bdf8      	pop	{r3, r4, r5, r6, r7, pc}
 800248e:	2001      	movs	r0, #1
 8002490:	bdf8      	pop	{r3, r4, r5, r6, r7, pc}
 8002492:	e9d4 010b 	ldrd	r0, r1, [r4, #44]	; 0x2c
 8002496:	4301      	orrs	r1, r0
 8002498:	430a      	orrs	r2, r1
 800249a:	6aa5      	ldr	r5, [r4, #40]	; 0x28
 800249c:	601a      	str	r2, [r3, #0]
 800249e:	695a      	ldr	r2, [r3, #20]
 80024a0:	f045 0104 	orr.w	r1, r5, #4
 80024a4:	f022 0207 	bic.w	r2, r2, #7
 80024a8:	4311      	orrs	r1, r2
 80024aa:	2800      	cmp	r0, #0
 80024ac:	d0cc      	beq.n	8002448 <HAL_DMA_Init+0x70>
 80024ae:	b17e      	cbz	r6, 80024d0 <HAL_DMA_Init+0xf8>
 80024b0:	f5b6 5f00 	cmp.w	r6, #8192	; 0x2000
 80024b4:	d016      	beq.n	80024e4 <HAL_DMA_Init+0x10c>
 80024b6:	2d02      	cmp	r5, #2
 80024b8:	d903      	bls.n	80024c2 <HAL_DMA_Init+0xea>
 80024ba:	2d03      	cmp	r5, #3
 80024bc:	d1c4      	bne.n	8002448 <HAL_DMA_Init+0x70>
 80024be:	01c2      	lsls	r2, r0, #7
 80024c0:	d5c2      	bpl.n	8002448 <HAL_DMA_Init+0x70>
 80024c2:	2301      	movs	r3, #1
 80024c4:	2240      	movs	r2, #64	; 0x40
 80024c6:	6562      	str	r2, [r4, #84]	; 0x54
 80024c8:	4618      	mov	r0, r3
 80024ca:	f884 3035 	strb.w	r3, [r4, #53]	; 0x35
 80024ce:	bdf8      	pop	{r3, r4, r5, r6, r7, pc}
 80024d0:	2d01      	cmp	r5, #1
 80024d2:	d003      	beq.n	80024dc <HAL_DMA_Init+0x104>
 80024d4:	d3f3      	bcc.n	80024be <HAL_DMA_Init+0xe6>
 80024d6:	2d02      	cmp	r5, #2
 80024d8:	d1b6      	bne.n	8002448 <HAL_DMA_Init+0x70>
 80024da:	e7f0      	b.n	80024be <HAL_DMA_Init+0xe6>
 80024dc:	f1b0 7fc0 	cmp.w	r0, #25165824	; 0x1800000
 80024e0:	d1b2      	bne.n	8002448 <HAL_DMA_Init+0x70>
 80024e2:	e7ee      	b.n	80024c2 <HAL_DMA_Init+0xea>
 80024e4:	2d03      	cmp	r5, #3
 80024e6:	d8af      	bhi.n	8002448 <HAL_DMA_Init+0x70>
 80024e8:	a201      	add	r2, pc, #4	; (adr r2, 80024f0 <HAL_DMA_Init+0x118>)
 80024ea:	f852 f025 	ldr.w	pc, [r2, r5, lsl #2]
 80024ee:	bf00      	nop
 80024f0:	080024c3 	.word	0x080024c3
 80024f4:	080024bf 	.word	0x080024bf
 80024f8:	080024c3 	.word	0x080024c3
 80024fc:	080024dd 	.word	0x080024dd
 8002500:	f010803f 	.word	0xf010803f
 8002504:	aaaaaaab 	.word	0xaaaaaaab
 8002508:	08003d88 	.word	0x08003d88

0800250c <HAL_DMA_IRQHandler>:
 800250c:	b5f0      	push	{r4, r5, r6, r7, lr}
 800250e:	b083      	sub	sp, #12
 8002510:	2300      	movs	r3, #0
 8002512:	6d87      	ldr	r7, [r0, #88]	; 0x58
 8002514:	9301      	str	r3, [sp, #4]
 8002516:	6dc3      	ldr	r3, [r0, #92]	; 0x5c
 8002518:	683d      	ldr	r5, [r7, #0]
 800251a:	4965      	ldr	r1, [pc, #404]	; (80026b0 <HAL_DMA_IRQHandler+0x1a4>)
 800251c:	2208      	movs	r2, #8
 800251e:	409a      	lsls	r2, r3
 8002520:	422a      	tst	r2, r5
 8002522:	4604      	mov	r4, r0
 8002524:	680e      	ldr	r6, [r1, #0]
 8002526:	d003      	beq.n	8002530 <HAL_DMA_IRQHandler+0x24>
 8002528:	6801      	ldr	r1, [r0, #0]
 800252a:	6808      	ldr	r0, [r1, #0]
 800252c:	0740      	lsls	r0, r0, #29
 800252e:	d459      	bmi.n	80025e4 <HAL_DMA_IRQHandler+0xd8>
 8002530:	2201      	movs	r2, #1
 8002532:	409a      	lsls	r2, r3
 8002534:	422a      	tst	r2, r5
 8002536:	d003      	beq.n	8002540 <HAL_DMA_IRQHandler+0x34>
 8002538:	6821      	ldr	r1, [r4, #0]
 800253a:	6949      	ldr	r1, [r1, #20]
 800253c:	0608      	lsls	r0, r1, #24
 800253e:	d474      	bmi.n	800262a <HAL_DMA_IRQHandler+0x11e>
 8002540:	2204      	movs	r2, #4
 8002542:	409a      	lsls	r2, r3
 8002544:	422a      	tst	r2, r5
 8002546:	d003      	beq.n	8002550 <HAL_DMA_IRQHandler+0x44>
 8002548:	6821      	ldr	r1, [r4, #0]
 800254a:	6809      	ldr	r1, [r1, #0]
 800254c:	0789      	lsls	r1, r1, #30
 800254e:	d466      	bmi.n	800261e <HAL_DMA_IRQHandler+0x112>
 8002550:	2210      	movs	r2, #16
 8002552:	409a      	lsls	r2, r3
 8002554:	422a      	tst	r2, r5
 8002556:	d003      	beq.n	8002560 <HAL_DMA_IRQHandler+0x54>
 8002558:	6821      	ldr	r1, [r4, #0]
 800255a:	6808      	ldr	r0, [r1, #0]
 800255c:	0700      	lsls	r0, r0, #28
 800255e:	d44b      	bmi.n	80025f8 <HAL_DMA_IRQHandler+0xec>
 8002560:	2220      	movs	r2, #32
 8002562:	409a      	lsls	r2, r3
 8002564:	422a      	tst	r2, r5
 8002566:	d014      	beq.n	8002592 <HAL_DMA_IRQHandler+0x86>
 8002568:	6821      	ldr	r1, [r4, #0]
 800256a:	6808      	ldr	r0, [r1, #0]
 800256c:	06c0      	lsls	r0, r0, #27
 800256e:	d510      	bpl.n	8002592 <HAL_DMA_IRQHandler+0x86>
 8002570:	60ba      	str	r2, [r7, #8]
 8002572:	f894 2035 	ldrb.w	r2, [r4, #53]	; 0x35
 8002576:	2a05      	cmp	r2, #5
 8002578:	d063      	beq.n	8002642 <HAL_DMA_IRQHandler+0x136>
 800257a:	680b      	ldr	r3, [r1, #0]
 800257c:	f413 2f80 	tst.w	r3, #262144	; 0x40000
 8002580:	680b      	ldr	r3, [r1, #0]
 8002582:	d07e      	beq.n	8002682 <HAL_DMA_IRQHandler+0x176>
 8002584:	0319      	lsls	r1, r3, #12
 8002586:	f140 8089 	bpl.w	800269c <HAL_DMA_IRQHandler+0x190>
 800258a:	6be3      	ldr	r3, [r4, #60]	; 0x3c
 800258c:	b10b      	cbz	r3, 8002592 <HAL_DMA_IRQHandler+0x86>
 800258e:	4620      	mov	r0, r4
 8002590:	4798      	blx	r3
 8002592:	6d63      	ldr	r3, [r4, #84]	; 0x54
 8002594:	b323      	cbz	r3, 80025e0 <HAL_DMA_IRQHandler+0xd4>
 8002596:	6d63      	ldr	r3, [r4, #84]	; 0x54
 8002598:	07da      	lsls	r2, r3, #31
 800259a:	d51a      	bpl.n	80025d2 <HAL_DMA_IRQHandler+0xc6>
 800259c:	2305      	movs	r3, #5
 800259e:	6822      	ldr	r2, [r4, #0]
 80025a0:	f884 3035 	strb.w	r3, [r4, #53]	; 0x35
 80025a4:	6813      	ldr	r3, [r2, #0]
 80025a6:	4943      	ldr	r1, [pc, #268]	; (80026b4 <HAL_DMA_IRQHandler+0x1a8>)
 80025a8:	f023 0301 	bic.w	r3, r3, #1
 80025ac:	fba1 1606 	umull	r1, r6, r1, r6
 80025b0:	6013      	str	r3, [r2, #0]
 80025b2:	0ab6      	lsrs	r6, r6, #10
 80025b4:	e002      	b.n	80025bc <HAL_DMA_IRQHandler+0xb0>
 80025b6:	6813      	ldr	r3, [r2, #0]
 80025b8:	07db      	lsls	r3, r3, #31
 80025ba:	d504      	bpl.n	80025c6 <HAL_DMA_IRQHandler+0xba>
 80025bc:	9b01      	ldr	r3, [sp, #4]
 80025be:	3301      	adds	r3, #1
 80025c0:	42b3      	cmp	r3, r6
 80025c2:	9301      	str	r3, [sp, #4]
 80025c4:	d9f7      	bls.n	80025b6 <HAL_DMA_IRQHandler+0xaa>
 80025c6:	2200      	movs	r2, #0
 80025c8:	2301      	movs	r3, #1
 80025ca:	f884 2034 	strb.w	r2, [r4, #52]	; 0x34
 80025ce:	f884 3035 	strb.w	r3, [r4, #53]	; 0x35
 80025d2:	6ce3      	ldr	r3, [r4, #76]	; 0x4c
 80025d4:	b123      	cbz	r3, 80025e0 <HAL_DMA_IRQHandler+0xd4>
 80025d6:	4620      	mov	r0, r4
 80025d8:	b003      	add	sp, #12
 80025da:	e8bd 40f0 	ldmia.w	sp!, {r4, r5, r6, r7, lr}
 80025de:	4718      	bx	r3
 80025e0:	b003      	add	sp, #12
 80025e2:	bdf0      	pop	{r4, r5, r6, r7, pc}
 80025e4:	6808      	ldr	r0, [r1, #0]
 80025e6:	f020 0004 	bic.w	r0, r0, #4
 80025ea:	6008      	str	r0, [r1, #0]
 80025ec:	60ba      	str	r2, [r7, #8]
 80025ee:	6d62      	ldr	r2, [r4, #84]	; 0x54
 80025f0:	f042 0201 	orr.w	r2, r2, #1
 80025f4:	6562      	str	r2, [r4, #84]	; 0x54
 80025f6:	e79b      	b.n	8002530 <HAL_DMA_IRQHandler+0x24>
 80025f8:	60ba      	str	r2, [r7, #8]
 80025fa:	680a      	ldr	r2, [r1, #0]
 80025fc:	f412 2f80 	tst.w	r2, #262144	; 0x40000
 8002600:	680a      	ldr	r2, [r1, #0]
 8002602:	d118      	bne.n	8002636 <HAL_DMA_IRQHandler+0x12a>
 8002604:	05d2      	lsls	r2, r2, #23
 8002606:	d403      	bmi.n	8002610 <HAL_DMA_IRQHandler+0x104>
 8002608:	680a      	ldr	r2, [r1, #0]
 800260a:	f022 0208 	bic.w	r2, r2, #8
 800260e:	600a      	str	r2, [r1, #0]
 8002610:	6c22      	ldr	r2, [r4, #64]	; 0x40
 8002612:	2a00      	cmp	r2, #0
 8002614:	d0a4      	beq.n	8002560 <HAL_DMA_IRQHandler+0x54>
 8002616:	4620      	mov	r0, r4
 8002618:	4790      	blx	r2
 800261a:	6de3      	ldr	r3, [r4, #92]	; 0x5c
 800261c:	e7a0      	b.n	8002560 <HAL_DMA_IRQHandler+0x54>
 800261e:	60ba      	str	r2, [r7, #8]
 8002620:	6d62      	ldr	r2, [r4, #84]	; 0x54
 8002622:	f042 0204 	orr.w	r2, r2, #4
 8002626:	6562      	str	r2, [r4, #84]	; 0x54
 8002628:	e792      	b.n	8002550 <HAL_DMA_IRQHandler+0x44>
 800262a:	60ba      	str	r2, [r7, #8]
 800262c:	6d62      	ldr	r2, [r4, #84]	; 0x54
 800262e:	f042 0202 	orr.w	r2, r2, #2
 8002632:	6562      	str	r2, [r4, #84]	; 0x54
 8002634:	e784      	b.n	8002540 <HAL_DMA_IRQHandler+0x34>
 8002636:	0311      	lsls	r1, r2, #12
 8002638:	d5ea      	bpl.n	8002610 <HAL_DMA_IRQHandler+0x104>
 800263a:	6ca2      	ldr	r2, [r4, #72]	; 0x48
 800263c:	2a00      	cmp	r2, #0
 800263e:	d1ea      	bne.n	8002616 <HAL_DMA_IRQHandler+0x10a>
 8002640:	e78e      	b.n	8002560 <HAL_DMA_IRQHandler+0x54>
 8002642:	680a      	ldr	r2, [r1, #0]
 8002644:	6c20      	ldr	r0, [r4, #64]	; 0x40
 8002646:	f022 0216 	bic.w	r2, r2, #22
 800264a:	600a      	str	r2, [r1, #0]
 800264c:	694a      	ldr	r2, [r1, #20]
 800264e:	f022 0280 	bic.w	r2, r2, #128	; 0x80
 8002652:	614a      	str	r2, [r1, #20]
 8002654:	b338      	cbz	r0, 80026a6 <HAL_DMA_IRQHandler+0x19a>
 8002656:	680a      	ldr	r2, [r1, #0]
 8002658:	f022 0208 	bic.w	r2, r2, #8
 800265c:	600a      	str	r2, [r1, #0]
 800265e:	223f      	movs	r2, #63	; 0x3f
 8002660:	6d21      	ldr	r1, [r4, #80]	; 0x50
 8002662:	fa02 f303 	lsl.w	r3, r2, r3
 8002666:	2000      	movs	r0, #0
 8002668:	2201      	movs	r2, #1
 800266a:	60bb      	str	r3, [r7, #8]
 800266c:	f884 0034 	strb.w	r0, [r4, #52]	; 0x34
 8002670:	f884 2035 	strb.w	r2, [r4, #53]	; 0x35
 8002674:	2900      	cmp	r1, #0
 8002676:	d0b3      	beq.n	80025e0 <HAL_DMA_IRQHandler+0xd4>
 8002678:	4620      	mov	r0, r4
 800267a:	b003      	add	sp, #12
 800267c:	e8bd 40f0 	ldmia.w	sp!, {r4, r5, r6, r7, lr}
 8002680:	4708      	bx	r1
 8002682:	f413 7380 	ands.w	r3, r3, #256	; 0x100
 8002686:	d180      	bne.n	800258a <HAL_DMA_IRQHandler+0x7e>
 8002688:	680a      	ldr	r2, [r1, #0]
 800268a:	2001      	movs	r0, #1
 800268c:	f022 0210 	bic.w	r2, r2, #16
 8002690:	600a      	str	r2, [r1, #0]
 8002692:	f884 3034 	strb.w	r3, [r4, #52]	; 0x34
 8002696:	f884 0035 	strb.w	r0, [r4, #53]	; 0x35
 800269a:	e776      	b.n	800258a <HAL_DMA_IRQHandler+0x7e>
 800269c:	6c63      	ldr	r3, [r4, #68]	; 0x44
 800269e:	2b00      	cmp	r3, #0
 80026a0:	f47f af75 	bne.w	800258e <HAL_DMA_IRQHandler+0x82>
 80026a4:	e775      	b.n	8002592 <HAL_DMA_IRQHandler+0x86>
 80026a6:	6ca2      	ldr	r2, [r4, #72]	; 0x48
 80026a8:	2a00      	cmp	r2, #0
 80026aa:	d1d4      	bne.n	8002656 <HAL_DMA_IRQHandler+0x14a>
 80026ac:	e7d7      	b.n	800265e <HAL_DMA_IRQHandler+0x152>
 80026ae:	bf00      	nop
 80026b0:	20000678 	.word	0x20000678
 80026b4:	1b4e81b5 	.word	0x1b4e81b5

080026b8 <HAL_GPIO_Init>:
 80026b8:	e92d 4ff0 	stmdb	sp!, {r4, r5, r6, r7, r8, r9, sl, fp, lr}
 80026bc:	f8df c260 	ldr.w	ip, [pc, #608]	; 8002920 <HAL_GPIO_Init+0x268>
 80026c0:	f8df 8260 	ldr.w	r8, [pc, #608]	; 8002924 <HAL_GPIO_Init+0x26c>
 80026c4:	f8d1 e000 	ldr.w	lr, [r1]
 80026c8:	b083      	sub	sp, #12
 80026ca:	2500      	movs	r5, #0
 80026cc:	e003      	b.n	80026d6 <HAL_GPIO_Init+0x1e>
 80026ce:	3501      	adds	r5, #1
 80026d0:	2d10      	cmp	r5, #16
 80026d2:	f000 80a4 	beq.w	800281e <HAL_GPIO_Init+0x166>
 80026d6:	2301      	movs	r3, #1
 80026d8:	40ab      	lsls	r3, r5
 80026da:	ea0e 0403 	and.w	r4, lr, r3
 80026de:	42a3      	cmp	r3, r4
 80026e0:	d1f5      	bne.n	80026ce <HAL_GPIO_Init+0x16>
 80026e2:	684e      	ldr	r6, [r1, #4]
 80026e4:	f026 0a10 	bic.w	sl, r6, #16
 80026e8:	f1ba 0f02 	cmp.w	sl, #2
 80026ec:	f000 809a 	beq.w	8002824 <HAL_GPIO_Init+0x16c>
 80026f0:	ea4f 0945 	mov.w	r9, r5, lsl #1
 80026f4:	2203      	movs	r2, #3
 80026f6:	f8d0 b000 	ldr.w	fp, [r0]
 80026fa:	fa02 f209 	lsl.w	r2, r2, r9
 80026fe:	43d2      	mvns	r2, r2
 8002700:	f006 0703 	and.w	r7, r6, #3
 8002704:	ea02 0b0b 	and.w	fp, r2, fp
 8002708:	fa07 f709 	lsl.w	r7, r7, r9
 800270c:	f10a 3aff 	add.w	sl, sl, #4294967295
 8002710:	ea47 070b 	orr.w	r7, r7, fp
 8002714:	f1ba 0f01 	cmp.w	sl, #1
 8002718:	6007      	str	r7, [r0, #0]
 800271a:	f240 80a9 	bls.w	8002870 <HAL_GPIO_Init+0x1b8>
 800271e:	68c7      	ldr	r7, [r0, #12]
 8002720:	688b      	ldr	r3, [r1, #8]
 8002722:	403a      	ands	r2, r7
 8002724:	fa03 f309 	lsl.w	r3, r3, r9
 8002728:	4313      	orrs	r3, r2
 800272a:	60c3      	str	r3, [r0, #12]
 800272c:	00f3      	lsls	r3, r6, #3
 800272e:	d5ce      	bpl.n	80026ce <HAL_GPIO_Init+0x16>
 8002730:	2300      	movs	r3, #0
 8002732:	9301      	str	r3, [sp, #4]
 8002734:	f8d8 3044 	ldr.w	r3, [r8, #68]	; 0x44
 8002738:	f443 4380 	orr.w	r3, r3, #16384	; 0x4000
 800273c:	f8c8 3044 	str.w	r3, [r8, #68]	; 0x44
 8002740:	f8d8 3044 	ldr.w	r3, [r8, #68]	; 0x44
 8002744:	f025 0203 	bic.w	r2, r5, #3
 8002748:	f102 4280 	add.w	r2, r2, #1073741824	; 0x40000000
 800274c:	f403 4380 	and.w	r3, r3, #16384	; 0x4000
 8002750:	f502 329c 	add.w	r2, r2, #79872	; 0x13800
 8002754:	9301      	str	r3, [sp, #4]
 8002756:	f005 0703 	and.w	r7, r5, #3
 800275a:	9b01      	ldr	r3, [sp, #4]
 800275c:	f8d2 9008 	ldr.w	r9, [r2, #8]
 8002760:	00bf      	lsls	r7, r7, #2
 8002762:	230f      	movs	r3, #15
 8002764:	40bb      	lsls	r3, r7
 8002766:	ea29 0a03 	bic.w	sl, r9, r3
 800276a:	4b67      	ldr	r3, [pc, #412]	; (8002908 <HAL_GPIO_Init+0x250>)
 800276c:	4298      	cmp	r0, r3
 800276e:	d02e      	beq.n	80027ce <HAL_GPIO_Init+0x116>
 8002770:	f503 6380 	add.w	r3, r3, #1024	; 0x400
 8002774:	4298      	cmp	r0, r3
 8002776:	f000 808e 	beq.w	8002896 <HAL_GPIO_Init+0x1de>
 800277a:	4b64      	ldr	r3, [pc, #400]	; (800290c <HAL_GPIO_Init+0x254>)
 800277c:	4298      	cmp	r0, r3
 800277e:	f000 8091 	beq.w	80028a4 <HAL_GPIO_Init+0x1ec>
 8002782:	4b63      	ldr	r3, [pc, #396]	; (8002910 <HAL_GPIO_Init+0x258>)
 8002784:	4298      	cmp	r0, r3
 8002786:	f000 8094 	beq.w	80028b2 <HAL_GPIO_Init+0x1fa>
 800278a:	4b62      	ldr	r3, [pc, #392]	; (8002914 <HAL_GPIO_Init+0x25c>)
 800278c:	4298      	cmp	r0, r3
 800278e:	f000 8097 	beq.w	80028c0 <HAL_GPIO_Init+0x208>
 8002792:	4b61      	ldr	r3, [pc, #388]	; (8002918 <HAL_GPIO_Init+0x260>)
 8002794:	4298      	cmp	r0, r3
 8002796:	f000 80a1 	beq.w	80028dc <HAL_GPIO_Init+0x224>
 800279a:	4b60      	ldr	r3, [pc, #384]	; (800291c <HAL_GPIO_Init+0x264>)
 800279c:	4298      	cmp	r0, r3
 800279e:	f000 80a4 	beq.w	80028ea <HAL_GPIO_Init+0x232>
 80027a2:	f8df 9184 	ldr.w	r9, [pc, #388]	; 8002928 <HAL_GPIO_Init+0x270>
 80027a6:	4548      	cmp	r0, r9
 80027a8:	f000 8091 	beq.w	80028ce <HAL_GPIO_Init+0x216>
 80027ac:	f8df 917c 	ldr.w	r9, [pc, #380]	; 800292c <HAL_GPIO_Init+0x274>
 80027b0:	4548      	cmp	r0, r9
 80027b2:	f000 80a1 	beq.w	80028f8 <HAL_GPIO_Init+0x240>
 80027b6:	f8df 9178 	ldr.w	r9, [pc, #376]	; 8002930 <HAL_GPIO_Init+0x278>
 80027ba:	4548      	cmp	r0, r9
 80027bc:	bf0c      	ite	eq
 80027be:	f04f 0909 	moveq.w	r9, #9
 80027c2:	f04f 090a 	movne.w	r9, #10
 80027c6:	fa09 f707 	lsl.w	r7, r9, r7
 80027ca:	ea4a 0a07 	orr.w	sl, sl, r7
 80027ce:	f8c2 a008 	str.w	sl, [r2, #8]
 80027d2:	f8dc 3000 	ldr.w	r3, [ip]
 80027d6:	43e2      	mvns	r2, r4
 80027d8:	03f7      	lsls	r7, r6, #15
 80027da:	bf54      	ite	pl
 80027dc:	4013      	andpl	r3, r2
 80027de:	4323      	orrmi	r3, r4
 80027e0:	f8cc 3000 	str.w	r3, [ip]
 80027e4:	f8dc 3004 	ldr.w	r3, [ip, #4]
 80027e8:	03b7      	lsls	r7, r6, #14
 80027ea:	bf54      	ite	pl
 80027ec:	4013      	andpl	r3, r2
 80027ee:	4323      	orrmi	r3, r4
 80027f0:	f8cc 3004 	str.w	r3, [ip, #4]
 80027f4:	f8dc 3008 	ldr.w	r3, [ip, #8]
 80027f8:	02f7      	lsls	r7, r6, #11
 80027fa:	bf54      	ite	pl
 80027fc:	4013      	andpl	r3, r2
 80027fe:	4323      	orrmi	r3, r4
 8002800:	f8cc 3008 	str.w	r3, [ip, #8]
 8002804:	f8dc 300c 	ldr.w	r3, [ip, #12]
 8002808:	02b6      	lsls	r6, r6, #10
 800280a:	f105 0501 	add.w	r5, r5, #1
 800280e:	bf54      	ite	pl
 8002810:	4013      	andpl	r3, r2
 8002812:	4323      	orrmi	r3, r4
 8002814:	2d10      	cmp	r5, #16
 8002816:	f8cc 300c 	str.w	r3, [ip, #12]
 800281a:	f47f af5c 	bne.w	80026d6 <HAL_GPIO_Init+0x1e>
 800281e:	b003      	add	sp, #12
 8002820:	e8bd 8ff0 	ldmia.w	sp!, {r4, r5, r6, r7, r8, r9, sl, fp, pc}
 8002824:	ea4f 09d5 	mov.w	r9, r5, lsr #3
 8002828:	eb00 0989 	add.w	r9, r0, r9, lsl #2
 800282c:	f005 0707 	and.w	r7, r5, #7
 8002830:	f8d9 2020 	ldr.w	r2, [r9, #32]
 8002834:	00bf      	lsls	r7, r7, #2
 8002836:	f04f 0b0f 	mov.w	fp, #15
 800283a:	fa0b fb07 	lsl.w	fp, fp, r7
 800283e:	ea22 0a0b 	bic.w	sl, r2, fp
 8002842:	690a      	ldr	r2, [r1, #16]
 8002844:	40ba      	lsls	r2, r7
 8002846:	ea42 020a 	orr.w	r2, r2, sl
 800284a:	f8c9 2020 	str.w	r2, [r9, #32]
 800284e:	ea4f 0945 	mov.w	r9, r5, lsl #1
 8002852:	2203      	movs	r2, #3
 8002854:	f8d0 a000 	ldr.w	sl, [r0]
 8002858:	fa02 f209 	lsl.w	r2, r2, r9
 800285c:	43d2      	mvns	r2, r2
 800285e:	f006 0703 	and.w	r7, r6, #3
 8002862:	ea02 0a0a 	and.w	sl, r2, sl
 8002866:	fa07 f709 	lsl.w	r7, r7, r9
 800286a:	ea47 070a 	orr.w	r7, r7, sl
 800286e:	6007      	str	r7, [r0, #0]
 8002870:	6887      	ldr	r7, [r0, #8]
 8002872:	ea07 0a02 	and.w	sl, r7, r2
 8002876:	68cf      	ldr	r7, [r1, #12]
 8002878:	fa07 f709 	lsl.w	r7, r7, r9
 800287c:	ea47 070a 	orr.w	r7, r7, sl
 8002880:	6087      	str	r7, [r0, #8]
 8002882:	f8d0 a004 	ldr.w	sl, [r0, #4]
 8002886:	f3c6 1700 	ubfx	r7, r6, #4, #1
 800288a:	ea2a 0303 	bic.w	r3, sl, r3
 800288e:	40af      	lsls	r7, r5
 8002890:	431f      	orrs	r7, r3
 8002892:	6047      	str	r7, [r0, #4]
 8002894:	e743      	b.n	800271e <HAL_GPIO_Init+0x66>
 8002896:	f04f 0901 	mov.w	r9, #1
 800289a:	fa09 f707 	lsl.w	r7, r9, r7
 800289e:	ea4a 0a07 	orr.w	sl, sl, r7
 80028a2:	e794      	b.n	80027ce <HAL_GPIO_Init+0x116>
 80028a4:	f04f 0902 	mov.w	r9, #2
 80028a8:	fa09 f707 	lsl.w	r7, r9, r7
 80028ac:	ea4a 0a07 	orr.w	sl, sl, r7
 80028b0:	e78d      	b.n	80027ce <HAL_GPIO_Init+0x116>
 80028b2:	f04f 0903 	mov.w	r9, #3
 80028b6:	fa09 f707 	lsl.w	r7, r9, r7
 80028ba:	ea4a 0a07 	orr.w	sl, sl, r7
 80028be:	e786      	b.n	80027ce <HAL_GPIO_Init+0x116>
 80028c0:	f04f 0904 	mov.w	r9, #4
 80028c4:	fa09 f707 	lsl.w	r7, r9, r7
 80028c8:	ea4a 0a07 	orr.w	sl, sl, r7
 80028cc:	e77f      	b.n	80027ce <HAL_GPIO_Init+0x116>
 80028ce:	f04f 0907 	mov.w	r9, #7
 80028d2:	fa09 f707 	lsl.w	r7, r9, r7
 80028d6:	ea4a 0a07 	orr.w	sl, sl, r7
 80028da:	e778      	b.n	80027ce <HAL_GPIO_Init+0x116>
 80028dc:	f04f 0905 	mov.w	r9, #5
 80028e0:	fa09 f707 	lsl.w	r7, r9, r7
 80028e4:	ea4a 0a07 	orr.w	sl, sl, r7
 80028e8:	e771      	b.n	80027ce <HAL_GPIO_Init+0x116>
 80028ea:	f04f 0906 	mov.w	r9, #6
 80028ee:	fa09 f707 	lsl.w	r7, r9, r7
 80028f2:	ea4a 0a07 	orr.w	sl, sl, r7
 80028f6:	e76a      	b.n	80027ce <HAL_GPIO_Init+0x116>
 80028f8:	f04f 0908 	mov.w	r9, #8
 80028fc:	fa09 f707 	lsl.w	r7, r9, r7
 8002900:	ea4a 0a07 	orr.w	sl, sl, r7
 8002904:	e763      	b.n	80027ce <HAL_GPIO_Init+0x116>
 8002906:	bf00      	nop
 8002908:	40020000 	.word	0x40020000
 800290c:	40020800 	.word	0x40020800
 8002910:	40020c00 	.word	0x40020c00
 8002914:	40021000 	.word	0x40021000
 8002918:	40021400 	.word	0x40021400
 800291c:	40021800 	.word	0x40021800
 8002920:	40013c00 	.word	0x40013c00
 8002924:	40023800 	.word	0x40023800
 8002928:	40021c00 	.word	0x40021c00
 800292c:	40022000 	.word	0x40022000
 8002930:	40022400 	.word	0x40022400

08002934 <HAL_GPIO_ReadPin>:
 8002934:	6903      	ldr	r3, [r0, #16]
 8002936:	4219      	tst	r1, r3
 8002938:	bf14      	ite	ne
 800293a:	2001      	movne	r0, #1
 800293c:	2000      	moveq	r0, #0
 800293e:	4770      	bx	lr

08002940 <HAL_GPIO_WritePin>:
 8002940:	b902      	cbnz	r2, 8002944 <HAL_GPIO_WritePin+0x4>
 8002942:	0409      	lsls	r1, r1, #16
 8002944:	6181      	str	r1, [r0, #24]
 8002946:	4770      	bx	lr

08002948 <HAL_GPIO_EXTI_IRQHandler>:
 8002948:	4a04      	ldr	r2, [pc, #16]	; (800295c <HAL_GPIO_EXTI_IRQHandler+0x14>)
 800294a:	6951      	ldr	r1, [r2, #20]
 800294c:	4201      	tst	r1, r0
 800294e:	d100      	bne.n	8002952 <HAL_GPIO_EXTI_IRQHandler+0xa>
 8002950:	4770      	bx	lr
 8002952:	b508      	push	{r3, lr}
 8002954:	6150      	str	r0, [r2, #20]
 8002956:	f7fd fe63 	bl	8000620 <HAL_GPIO_EXTI_Callback>
 800295a:	bd08      	pop	{r3, pc}
 800295c:	40013c00 	.word	0x40013c00

08002960 <HAL_PWREx_EnableOverDrive>:
 8002960:	b530      	push	{r4, r5, lr}
 8002962:	b083      	sub	sp, #12
 8002964:	4b19      	ldr	r3, [pc, #100]	; (80029cc <HAL_PWREx_EnableOverDrive+0x6c>)
 8002966:	491a      	ldr	r1, [pc, #104]	; (80029d0 <HAL_PWREx_EnableOverDrive+0x70>)
 8002968:	4c1a      	ldr	r4, [pc, #104]	; (80029d4 <HAL_PWREx_EnableOverDrive+0x74>)
 800296a:	2200      	movs	r2, #0
 800296c:	9201      	str	r2, [sp, #4]
 800296e:	6c1a      	ldr	r2, [r3, #64]	; 0x40
 8002970:	f042 5280 	orr.w	r2, r2, #268435456	; 0x10000000
 8002974:	641a      	str	r2, [r3, #64]	; 0x40
 8002976:	6c1b      	ldr	r3, [r3, #64]	; 0x40
 8002978:	f003 5380 	and.w	r3, r3, #268435456	; 0x10000000
 800297c:	9301      	str	r3, [sp, #4]
 800297e:	2301      	movs	r3, #1
 8002980:	9a01      	ldr	r2, [sp, #4]
 8002982:	600b      	str	r3, [r1, #0]
 8002984:	f7ff fca0 	bl	80022c8 <HAL_GetTick>
 8002988:	4605      	mov	r5, r0
 800298a:	e005      	b.n	8002998 <HAL_PWREx_EnableOverDrive+0x38>
 800298c:	f7ff fc9c 	bl	80022c8 <HAL_GetTick>
 8002990:	1b40      	subs	r0, r0, r5
 8002992:	f5b0 7f7a 	cmp.w	r0, #1000	; 0x3e8
 8002996:	d816      	bhi.n	80029c6 <HAL_PWREx_EnableOverDrive+0x66>
 8002998:	6863      	ldr	r3, [r4, #4]
 800299a:	03da      	lsls	r2, r3, #15
 800299c:	d5f6      	bpl.n	800298c <HAL_PWREx_EnableOverDrive+0x2c>
 800299e:	4b0e      	ldr	r3, [pc, #56]	; (80029d8 <HAL_PWREx_EnableOverDrive+0x78>)
 80029a0:	4c0c      	ldr	r4, [pc, #48]	; (80029d4 <HAL_PWREx_EnableOverDrive+0x74>)
 80029a2:	2201      	movs	r2, #1
 80029a4:	601a      	str	r2, [r3, #0]
 80029a6:	f7ff fc8f 	bl	80022c8 <HAL_GetTick>
 80029aa:	4605      	mov	r5, r0
 80029ac:	e005      	b.n	80029ba <HAL_PWREx_EnableOverDrive+0x5a>
 80029ae:	f7ff fc8b 	bl	80022c8 <HAL_GetTick>
 80029b2:	1b40      	subs	r0, r0, r5
 80029b4:	f5b0 7f7a 	cmp.w	r0, #1000	; 0x3e8
 80029b8:	d805      	bhi.n	80029c6 <HAL_PWREx_EnableOverDrive+0x66>
 80029ba:	6863      	ldr	r3, [r4, #4]
 80029bc:	039b      	lsls	r3, r3, #14
 80029be:	d5f6      	bpl.n	80029ae <HAL_PWREx_EnableOverDrive+0x4e>
 80029c0:	2000      	movs	r0, #0
 80029c2:	b003      	add	sp, #12
 80029c4:	bd30      	pop	{r4, r5, pc}
 80029c6:	2003      	movs	r0, #3
 80029c8:	b003      	add	sp, #12
 80029ca:	bd30      	pop	{r4, r5, pc}
 80029cc:	40023800 	.word	0x40023800
 80029d0:	420e0040 	.word	0x420e0040
 80029d4:	40007000 	.word	0x40007000
 80029d8:	420e0044 	.word	0x420e0044

080029dc <HAL_RCC_OscConfig>:
 80029dc:	2800      	cmp	r0, #0
 80029de:	f000 8132 	beq.w	8002c46 <HAL_RCC_OscConfig+0x26a>
 80029e2:	e92d 41f0 	stmdb	sp!, {r4, r5, r6, r7, r8, lr}
 80029e6:	6803      	ldr	r3, [r0, #0]
 80029e8:	07dd      	lsls	r5, r3, #31
 80029ea:	b082      	sub	sp, #8
 80029ec:	4604      	mov	r4, r0
 80029ee:	d52f      	bpl.n	8002a50 <HAL_RCC_OscConfig+0x74>
 80029f0:	49ac      	ldr	r1, [pc, #688]	; (8002ca4 <HAL_RCC_OscConfig+0x2c8>)
 80029f2:	688a      	ldr	r2, [r1, #8]
 80029f4:	f002 020c 	and.w	r2, r2, #12
 80029f8:	2a04      	cmp	r2, #4
 80029fa:	f000 80ea 	beq.w	8002bd2 <HAL_RCC_OscConfig+0x1f6>
 80029fe:	688a      	ldr	r2, [r1, #8]
 8002a00:	f002 020c 	and.w	r2, r2, #12
 8002a04:	2a08      	cmp	r2, #8
 8002a06:	f000 80e0 	beq.w	8002bca <HAL_RCC_OscConfig+0x1ee>
 8002a0a:	6863      	ldr	r3, [r4, #4]
 8002a0c:	f5b3 3f80 	cmp.w	r3, #65536	; 0x10000
 8002a10:	f000 80e9 	beq.w	8002be6 <HAL_RCC_OscConfig+0x20a>
 8002a14:	f5b3 2fa0 	cmp.w	r3, #327680	; 0x50000
 8002a18:	f000 8154 	beq.w	8002cc4 <HAL_RCC_OscConfig+0x2e8>
 8002a1c:	4da1      	ldr	r5, [pc, #644]	; (8002ca4 <HAL_RCC_OscConfig+0x2c8>)
 8002a1e:	682a      	ldr	r2, [r5, #0]
 8002a20:	f422 3280 	bic.w	r2, r2, #65536	; 0x10000
 8002a24:	602a      	str	r2, [r5, #0]
 8002a26:	682a      	ldr	r2, [r5, #0]
 8002a28:	f422 2280 	bic.w	r2, r2, #262144	; 0x40000
 8002a2c:	602a      	str	r2, [r5, #0]
 8002a2e:	2b00      	cmp	r3, #0
 8002a30:	f040 80de 	bne.w	8002bf0 <HAL_RCC_OscConfig+0x214>
 8002a34:	f7ff fc48 	bl	80022c8 <HAL_GetTick>
 8002a38:	4606      	mov	r6, r0
 8002a3a:	e005      	b.n	8002a48 <HAL_RCC_OscConfig+0x6c>
 8002a3c:	f7ff fc44 	bl	80022c8 <HAL_GetTick>
 8002a40:	1b80      	subs	r0, r0, r6
 8002a42:	2864      	cmp	r0, #100	; 0x64
 8002a44:	f200 80f2 	bhi.w	8002c2c <HAL_RCC_OscConfig+0x250>
 8002a48:	682b      	ldr	r3, [r5, #0]
 8002a4a:	039b      	lsls	r3, r3, #14
 8002a4c:	d4f6      	bmi.n	8002a3c <HAL_RCC_OscConfig+0x60>
 8002a4e:	6823      	ldr	r3, [r4, #0]
 8002a50:	079f      	lsls	r7, r3, #30
 8002a52:	d475      	bmi.n	8002b40 <HAL_RCC_OscConfig+0x164>
 8002a54:	071a      	lsls	r2, r3, #28
 8002a56:	d515      	bpl.n	8002a84 <HAL_RCC_OscConfig+0xa8>
 8002a58:	6963      	ldr	r3, [r4, #20]
 8002a5a:	2b00      	cmp	r3, #0
 8002a5c:	f000 80a5 	beq.w	8002baa <HAL_RCC_OscConfig+0x1ce>
 8002a60:	4b91      	ldr	r3, [pc, #580]	; (8002ca8 <HAL_RCC_OscConfig+0x2cc>)
 8002a62:	4d90      	ldr	r5, [pc, #576]	; (8002ca4 <HAL_RCC_OscConfig+0x2c8>)
 8002a64:	2201      	movs	r2, #1
 8002a66:	601a      	str	r2, [r3, #0]
 8002a68:	f7ff fc2e 	bl	80022c8 <HAL_GetTick>
 8002a6c:	4606      	mov	r6, r0
 8002a6e:	e005      	b.n	8002a7c <HAL_RCC_OscConfig+0xa0>
 8002a70:	f7ff fc2a 	bl	80022c8 <HAL_GetTick>
 8002a74:	1b80      	subs	r0, r0, r6
 8002a76:	2802      	cmp	r0, #2
 8002a78:	f200 80d8 	bhi.w	8002c2c <HAL_RCC_OscConfig+0x250>
 8002a7c:	6f6b      	ldr	r3, [r5, #116]	; 0x74
 8002a7e:	079b      	lsls	r3, r3, #30
 8002a80:	d5f6      	bpl.n	8002a70 <HAL_RCC_OscConfig+0x94>
 8002a82:	6823      	ldr	r3, [r4, #0]
 8002a84:	0758      	lsls	r0, r3, #29
 8002a86:	d53b      	bpl.n	8002b00 <HAL_RCC_OscConfig+0x124>
 8002a88:	4a86      	ldr	r2, [pc, #536]	; (8002ca4 <HAL_RCC_OscConfig+0x2c8>)
 8002a8a:	6c13      	ldr	r3, [r2, #64]	; 0x40
 8002a8c:	f013 5380 	ands.w	r3, r3, #268435456	; 0x10000000
 8002a90:	f040 80db 	bne.w	8002c4a <HAL_RCC_OscConfig+0x26e>
 8002a94:	9301      	str	r3, [sp, #4]
 8002a96:	6c13      	ldr	r3, [r2, #64]	; 0x40
 8002a98:	f043 5380 	orr.w	r3, r3, #268435456	; 0x10000000
 8002a9c:	6413      	str	r3, [r2, #64]	; 0x40
 8002a9e:	6c13      	ldr	r3, [r2, #64]	; 0x40
 8002aa0:	f003 5380 	and.w	r3, r3, #268435456	; 0x10000000
 8002aa4:	9301      	str	r3, [sp, #4]
 8002aa6:	9b01      	ldr	r3, [sp, #4]
 8002aa8:	2601      	movs	r6, #1
 8002aaa:	4d80      	ldr	r5, [pc, #512]	; (8002cac <HAL_RCC_OscConfig+0x2d0>)
 8002aac:	682a      	ldr	r2, [r5, #0]
 8002aae:	05d1      	lsls	r1, r2, #23
 8002ab0:	f140 80ac 	bpl.w	8002c0c <HAL_RCC_OscConfig+0x230>
 8002ab4:	68a3      	ldr	r3, [r4, #8]
 8002ab6:	2b01      	cmp	r3, #1
 8002ab8:	f000 80c9 	beq.w	8002c4e <HAL_RCC_OscConfig+0x272>
 8002abc:	2b05      	cmp	r3, #5
 8002abe:	f000 810b 	beq.w	8002cd8 <HAL_RCC_OscConfig+0x2fc>
 8002ac2:	4d78      	ldr	r5, [pc, #480]	; (8002ca4 <HAL_RCC_OscConfig+0x2c8>)
 8002ac4:	6f2a      	ldr	r2, [r5, #112]	; 0x70
 8002ac6:	f022 0201 	bic.w	r2, r2, #1
 8002aca:	672a      	str	r2, [r5, #112]	; 0x70
 8002acc:	6f2a      	ldr	r2, [r5, #112]	; 0x70
 8002ace:	f022 0204 	bic.w	r2, r2, #4
 8002ad2:	672a      	str	r2, [r5, #112]	; 0x70
 8002ad4:	2b00      	cmp	r3, #0
 8002ad6:	f040 80bf 	bne.w	8002c58 <HAL_RCC_OscConfig+0x27c>
 8002ada:	f7ff fbf5 	bl	80022c8 <HAL_GetTick>
 8002ade:	f241 3788 	movw	r7, #5000	; 0x1388
 8002ae2:	4680      	mov	r8, r0
 8002ae4:	e006      	b.n	8002af4 <HAL_RCC_OscConfig+0x118>
 8002ae6:	f7ff fbef 	bl	80022c8 <HAL_GetTick>
 8002aea:	eba0 0008 	sub.w	r0, r0, r8
 8002aee:	42b8      	cmp	r0, r7
 8002af0:	f200 809c 	bhi.w	8002c2c <HAL_RCC_OscConfig+0x250>
 8002af4:	6f2b      	ldr	r3, [r5, #112]	; 0x70
 8002af6:	0798      	lsls	r0, r3, #30
 8002af8:	d4f5      	bmi.n	8002ae6 <HAL_RCC_OscConfig+0x10a>
 8002afa:	2e00      	cmp	r6, #0
 8002afc:	f040 80dc 	bne.w	8002cb8 <HAL_RCC_OscConfig+0x2dc>
 8002b00:	69a2      	ldr	r2, [r4, #24]
 8002b02:	b1ca      	cbz	r2, 8002b38 <HAL_RCC_OscConfig+0x15c>
 8002b04:	4d67      	ldr	r5, [pc, #412]	; (8002ca4 <HAL_RCC_OscConfig+0x2c8>)
 8002b06:	68a9      	ldr	r1, [r5, #8]
 8002b08:	f001 010c 	and.w	r1, r1, #12
 8002b0c:	2908      	cmp	r1, #8
 8002b0e:	d048      	beq.n	8002ba2 <HAL_RCC_OscConfig+0x1c6>
 8002b10:	2a02      	cmp	r2, #2
 8002b12:	4a67      	ldr	r2, [pc, #412]	; (8002cb0 <HAL_RCC_OscConfig+0x2d4>)
 8002b14:	f04f 0100 	mov.w	r1, #0
 8002b18:	6011      	str	r1, [r2, #0]
 8002b1a:	f000 80e7 	beq.w	8002cec <HAL_RCC_OscConfig+0x310>
 8002b1e:	f7ff fbd3 	bl	80022c8 <HAL_GetTick>
 8002b22:	462c      	mov	r4, r5
 8002b24:	4605      	mov	r5, r0
 8002b26:	e004      	b.n	8002b32 <HAL_RCC_OscConfig+0x156>
 8002b28:	f7ff fbce 	bl	80022c8 <HAL_GetTick>
 8002b2c:	1b40      	subs	r0, r0, r5
 8002b2e:	2802      	cmp	r0, #2
 8002b30:	d87c      	bhi.n	8002c2c <HAL_RCC_OscConfig+0x250>
 8002b32:	6823      	ldr	r3, [r4, #0]
 8002b34:	019b      	lsls	r3, r3, #6
 8002b36:	d4f7      	bmi.n	8002b28 <HAL_RCC_OscConfig+0x14c>
 8002b38:	2000      	movs	r0, #0
 8002b3a:	b002      	add	sp, #8
 8002b3c:	e8bd 81f0 	ldmia.w	sp!, {r4, r5, r6, r7, r8, pc}
 8002b40:	4a58      	ldr	r2, [pc, #352]	; (8002ca4 <HAL_RCC_OscConfig+0x2c8>)
 8002b42:	6891      	ldr	r1, [r2, #8]
 8002b44:	f011 0f0c 	tst.w	r1, #12
 8002b48:	d024      	beq.n	8002b94 <HAL_RCC_OscConfig+0x1b8>
 8002b4a:	6891      	ldr	r1, [r2, #8]
 8002b4c:	f001 010c 	and.w	r1, r1, #12
 8002b50:	2908      	cmp	r1, #8
 8002b52:	d01c      	beq.n	8002b8e <HAL_RCC_OscConfig+0x1b2>
 8002b54:	68e3      	ldr	r3, [r4, #12]
 8002b56:	2b00      	cmp	r3, #0
 8002b58:	f000 8092 	beq.w	8002c80 <HAL_RCC_OscConfig+0x2a4>
 8002b5c:	4b55      	ldr	r3, [pc, #340]	; (8002cb4 <HAL_RCC_OscConfig+0x2d8>)
 8002b5e:	4d51      	ldr	r5, [pc, #324]	; (8002ca4 <HAL_RCC_OscConfig+0x2c8>)
 8002b60:	2201      	movs	r2, #1
 8002b62:	601a      	str	r2, [r3, #0]
 8002b64:	f7ff fbb0 	bl	80022c8 <HAL_GetTick>
 8002b68:	4606      	mov	r6, r0
 8002b6a:	e004      	b.n	8002b76 <HAL_RCC_OscConfig+0x19a>
 8002b6c:	f7ff fbac 	bl	80022c8 <HAL_GetTick>
 8002b70:	1b80      	subs	r0, r0, r6
 8002b72:	2802      	cmp	r0, #2
 8002b74:	d85a      	bhi.n	8002c2c <HAL_RCC_OscConfig+0x250>
 8002b76:	682b      	ldr	r3, [r5, #0]
 8002b78:	0798      	lsls	r0, r3, #30
 8002b7a:	d5f7      	bpl.n	8002b6c <HAL_RCC_OscConfig+0x190>
 8002b7c:	682b      	ldr	r3, [r5, #0]
 8002b7e:	6922      	ldr	r2, [r4, #16]
 8002b80:	f023 03f8 	bic.w	r3, r3, #248	; 0xf8
 8002b84:	ea43 03c2 	orr.w	r3, r3, r2, lsl #3
 8002b88:	602b      	str	r3, [r5, #0]
 8002b8a:	6823      	ldr	r3, [r4, #0]
 8002b8c:	e762      	b.n	8002a54 <HAL_RCC_OscConfig+0x78>
 8002b8e:	6852      	ldr	r2, [r2, #4]
 8002b90:	0256      	lsls	r6, r2, #9
 8002b92:	d4df      	bmi.n	8002b54 <HAL_RCC_OscConfig+0x178>
 8002b94:	4a43      	ldr	r2, [pc, #268]	; (8002ca4 <HAL_RCC_OscConfig+0x2c8>)
 8002b96:	6812      	ldr	r2, [r2, #0]
 8002b98:	0795      	lsls	r5, r2, #30
 8002b9a:	d54b      	bpl.n	8002c34 <HAL_RCC_OscConfig+0x258>
 8002b9c:	68e2      	ldr	r2, [r4, #12]
 8002b9e:	2a01      	cmp	r2, #1
 8002ba0:	d048      	beq.n	8002c34 <HAL_RCC_OscConfig+0x258>
 8002ba2:	2001      	movs	r0, #1
 8002ba4:	b002      	add	sp, #8
 8002ba6:	e8bd 81f0 	ldmia.w	sp!, {r4, r5, r6, r7, r8, pc}
 8002baa:	4a3f      	ldr	r2, [pc, #252]	; (8002ca8 <HAL_RCC_OscConfig+0x2cc>)
 8002bac:	4d3d      	ldr	r5, [pc, #244]	; (8002ca4 <HAL_RCC_OscConfig+0x2c8>)
 8002bae:	6013      	str	r3, [r2, #0]
 8002bb0:	f7ff fb8a 	bl	80022c8 <HAL_GetTick>
 8002bb4:	4606      	mov	r6, r0
 8002bb6:	e004      	b.n	8002bc2 <HAL_RCC_OscConfig+0x1e6>
 8002bb8:	f7ff fb86 	bl	80022c8 <HAL_GetTick>
 8002bbc:	1b80      	subs	r0, r0, r6
 8002bbe:	2802      	cmp	r0, #2
 8002bc0:	d834      	bhi.n	8002c2c <HAL_RCC_OscConfig+0x250>
 8002bc2:	6f6b      	ldr	r3, [r5, #116]	; 0x74
 8002bc4:	079f      	lsls	r7, r3, #30
 8002bc6:	d4f7      	bmi.n	8002bb8 <HAL_RCC_OscConfig+0x1dc>
 8002bc8:	e75b      	b.n	8002a82 <HAL_RCC_OscConfig+0xa6>
 8002bca:	684a      	ldr	r2, [r1, #4]
 8002bcc:	0250      	lsls	r0, r2, #9
 8002bce:	f57f af1c 	bpl.w	8002a0a <HAL_RCC_OscConfig+0x2e>
 8002bd2:	4a34      	ldr	r2, [pc, #208]	; (8002ca4 <HAL_RCC_OscConfig+0x2c8>)
 8002bd4:	6812      	ldr	r2, [r2, #0]
 8002bd6:	0391      	lsls	r1, r2, #14
 8002bd8:	f57f af3a 	bpl.w	8002a50 <HAL_RCC_OscConfig+0x74>
 8002bdc:	6862      	ldr	r2, [r4, #4]
 8002bde:	2a00      	cmp	r2, #0
 8002be0:	f47f af36 	bne.w	8002a50 <HAL_RCC_OscConfig+0x74>
 8002be4:	e7dd      	b.n	8002ba2 <HAL_RCC_OscConfig+0x1c6>
 8002be6:	4a2f      	ldr	r2, [pc, #188]	; (8002ca4 <HAL_RCC_OscConfig+0x2c8>)
 8002be8:	6813      	ldr	r3, [r2, #0]
 8002bea:	f443 3380 	orr.w	r3, r3, #65536	; 0x10000
 8002bee:	6013      	str	r3, [r2, #0]
 8002bf0:	f7ff fb6a 	bl	80022c8 <HAL_GetTick>
 8002bf4:	4d2b      	ldr	r5, [pc, #172]	; (8002ca4 <HAL_RCC_OscConfig+0x2c8>)
 8002bf6:	4606      	mov	r6, r0
 8002bf8:	e004      	b.n	8002c04 <HAL_RCC_OscConfig+0x228>
 8002bfa:	f7ff fb65 	bl	80022c8 <HAL_GetTick>
 8002bfe:	1b80      	subs	r0, r0, r6
 8002c00:	2864      	cmp	r0, #100	; 0x64
 8002c02:	d813      	bhi.n	8002c2c <HAL_RCC_OscConfig+0x250>
 8002c04:	682b      	ldr	r3, [r5, #0]
 8002c06:	039a      	lsls	r2, r3, #14
 8002c08:	d5f7      	bpl.n	8002bfa <HAL_RCC_OscConfig+0x21e>
 8002c0a:	e720      	b.n	8002a4e <HAL_RCC_OscConfig+0x72>
 8002c0c:	682a      	ldr	r2, [r5, #0]
 8002c0e:	f442 7280 	orr.w	r2, r2, #256	; 0x100
 8002c12:	602a      	str	r2, [r5, #0]
 8002c14:	f7ff fb58 	bl	80022c8 <HAL_GetTick>
 8002c18:	4607      	mov	r7, r0
 8002c1a:	682b      	ldr	r3, [r5, #0]
 8002c1c:	05da      	lsls	r2, r3, #23
 8002c1e:	f53f af49 	bmi.w	8002ab4 <HAL_RCC_OscConfig+0xd8>
 8002c22:	f7ff fb51 	bl	80022c8 <HAL_GetTick>
 8002c26:	1bc0      	subs	r0, r0, r7
 8002c28:	2802      	cmp	r0, #2
 8002c2a:	d9f6      	bls.n	8002c1a <HAL_RCC_OscConfig+0x23e>
 8002c2c:	2003      	movs	r0, #3
 8002c2e:	b002      	add	sp, #8
 8002c30:	e8bd 81f0 	ldmia.w	sp!, {r4, r5, r6, r7, r8, pc}
 8002c34:	491b      	ldr	r1, [pc, #108]	; (8002ca4 <HAL_RCC_OscConfig+0x2c8>)
 8002c36:	6920      	ldr	r0, [r4, #16]
 8002c38:	680a      	ldr	r2, [r1, #0]
 8002c3a:	f022 02f8 	bic.w	r2, r2, #248	; 0xf8
 8002c3e:	ea42 02c0 	orr.w	r2, r2, r0, lsl #3
 8002c42:	600a      	str	r2, [r1, #0]
 8002c44:	e706      	b.n	8002a54 <HAL_RCC_OscConfig+0x78>
 8002c46:	2001      	movs	r0, #1
 8002c48:	4770      	bx	lr
 8002c4a:	2600      	movs	r6, #0
 8002c4c:	e72d      	b.n	8002aaa <HAL_RCC_OscConfig+0xce>
 8002c4e:	4a15      	ldr	r2, [pc, #84]	; (8002ca4 <HAL_RCC_OscConfig+0x2c8>)
 8002c50:	6f13      	ldr	r3, [r2, #112]	; 0x70
 8002c52:	f043 0301 	orr.w	r3, r3, #1
 8002c56:	6713      	str	r3, [r2, #112]	; 0x70
 8002c58:	f7ff fb36 	bl	80022c8 <HAL_GetTick>
 8002c5c:	4d11      	ldr	r5, [pc, #68]	; (8002ca4 <HAL_RCC_OscConfig+0x2c8>)
 8002c5e:	4680      	mov	r8, r0
 8002c60:	f241 3788 	movw	r7, #5000	; 0x1388
 8002c64:	e005      	b.n	8002c72 <HAL_RCC_OscConfig+0x296>
 8002c66:	f7ff fb2f 	bl	80022c8 <HAL_GetTick>
 8002c6a:	eba0 0008 	sub.w	r0, r0, r8
 8002c6e:	42b8      	cmp	r0, r7
 8002c70:	d8dc      	bhi.n	8002c2c <HAL_RCC_OscConfig+0x250>
 8002c72:	6f2b      	ldr	r3, [r5, #112]	; 0x70
 8002c74:	079b      	lsls	r3, r3, #30
 8002c76:	d5f6      	bpl.n	8002c66 <HAL_RCC_OscConfig+0x28a>
 8002c78:	2e00      	cmp	r6, #0
 8002c7a:	f43f af41 	beq.w	8002b00 <HAL_RCC_OscConfig+0x124>
 8002c7e:	e01b      	b.n	8002cb8 <HAL_RCC_OscConfig+0x2dc>
 8002c80:	4a0c      	ldr	r2, [pc, #48]	; (8002cb4 <HAL_RCC_OscConfig+0x2d8>)
 8002c82:	4d08      	ldr	r5, [pc, #32]	; (8002ca4 <HAL_RCC_OscConfig+0x2c8>)
 8002c84:	6013      	str	r3, [r2, #0]
 8002c86:	f7ff fb1f 	bl	80022c8 <HAL_GetTick>
 8002c8a:	4606      	mov	r6, r0
 8002c8c:	e004      	b.n	8002c98 <HAL_RCC_OscConfig+0x2bc>
 8002c8e:	f7ff fb1b 	bl	80022c8 <HAL_GetTick>
 8002c92:	1b80      	subs	r0, r0, r6
 8002c94:	2802      	cmp	r0, #2
 8002c96:	d8c9      	bhi.n	8002c2c <HAL_RCC_OscConfig+0x250>
 8002c98:	682b      	ldr	r3, [r5, #0]
 8002c9a:	0799      	lsls	r1, r3, #30
 8002c9c:	d4f7      	bmi.n	8002c8e <HAL_RCC_OscConfig+0x2b2>
 8002c9e:	6823      	ldr	r3, [r4, #0]
 8002ca0:	e6d8      	b.n	8002a54 <HAL_RCC_OscConfig+0x78>
 8002ca2:	bf00      	nop
 8002ca4:	40023800 	.word	0x40023800
 8002ca8:	42470e80 	.word	0x42470e80
 8002cac:	40007000 	.word	0x40007000
 8002cb0:	42470060 	.word	0x42470060
 8002cb4:	42470000 	.word	0x42470000
 8002cb8:	4a23      	ldr	r2, [pc, #140]	; (8002d48 <HAL_RCC_OscConfig+0x36c>)
 8002cba:	6c13      	ldr	r3, [r2, #64]	; 0x40
 8002cbc:	f023 5380 	bic.w	r3, r3, #268435456	; 0x10000000
 8002cc0:	6413      	str	r3, [r2, #64]	; 0x40
 8002cc2:	e71d      	b.n	8002b00 <HAL_RCC_OscConfig+0x124>
 8002cc4:	4b20      	ldr	r3, [pc, #128]	; (8002d48 <HAL_RCC_OscConfig+0x36c>)
 8002cc6:	681a      	ldr	r2, [r3, #0]
 8002cc8:	f442 2280 	orr.w	r2, r2, #262144	; 0x40000
 8002ccc:	601a      	str	r2, [r3, #0]
 8002cce:	681a      	ldr	r2, [r3, #0]
 8002cd0:	f442 3280 	orr.w	r2, r2, #65536	; 0x10000
 8002cd4:	601a      	str	r2, [r3, #0]
 8002cd6:	e78b      	b.n	8002bf0 <HAL_RCC_OscConfig+0x214>
 8002cd8:	4b1b      	ldr	r3, [pc, #108]	; (8002d48 <HAL_RCC_OscConfig+0x36c>)
 8002cda:	6f1a      	ldr	r2, [r3, #112]	; 0x70
 8002cdc:	f042 0204 	orr.w	r2, r2, #4
 8002ce0:	671a      	str	r2, [r3, #112]	; 0x70
 8002ce2:	6f1a      	ldr	r2, [r3, #112]	; 0x70
 8002ce4:	f042 0201 	orr.w	r2, r2, #1
 8002ce8:	671a      	str	r2, [r3, #112]	; 0x70
 8002cea:	e7b5      	b.n	8002c58 <HAL_RCC_OscConfig+0x27c>
 8002cec:	f7ff faec 	bl	80022c8 <HAL_GetTick>
 8002cf0:	4606      	mov	r6, r0
 8002cf2:	e004      	b.n	8002cfe <HAL_RCC_OscConfig+0x322>
 8002cf4:	f7ff fae8 	bl	80022c8 <HAL_GetTick>
 8002cf8:	1b80      	subs	r0, r0, r6
 8002cfa:	2802      	cmp	r0, #2
 8002cfc:	d896      	bhi.n	8002c2c <HAL_RCC_OscConfig+0x250>
 8002cfe:	682b      	ldr	r3, [r5, #0]
 8002d00:	0199      	lsls	r1, r3, #6
 8002d02:	d4f7      	bmi.n	8002cf4 <HAL_RCC_OscConfig+0x318>
 8002d04:	e9d4 3607 	ldrd	r3, r6, [r4, #28]
 8002d08:	e9d4 0209 	ldrd	r0, r2, [r4, #36]	; 0x24
 8002d0c:	6ae1      	ldr	r1, [r4, #44]	; 0x2c
 8002d0e:	4c0e      	ldr	r4, [pc, #56]	; (8002d48 <HAL_RCC_OscConfig+0x36c>)
 8002d10:	4333      	orrs	r3, r6
 8002d12:	ea43 1380 	orr.w	r3, r3, r0, lsl #6
 8002d16:	0852      	lsrs	r2, r2, #1
 8002d18:	ea43 6301 	orr.w	r3, r3, r1, lsl #24
 8002d1c:	3a01      	subs	r2, #1
 8002d1e:	490b      	ldr	r1, [pc, #44]	; (8002d4c <HAL_RCC_OscConfig+0x370>)
 8002d20:	ea43 4302 	orr.w	r3, r3, r2, lsl #16
 8002d24:	2201      	movs	r2, #1
 8002d26:	606b      	str	r3, [r5, #4]
 8002d28:	600a      	str	r2, [r1, #0]
 8002d2a:	f7ff facd 	bl	80022c8 <HAL_GetTick>
 8002d2e:	4605      	mov	r5, r0
 8002d30:	e005      	b.n	8002d3e <HAL_RCC_OscConfig+0x362>
 8002d32:	f7ff fac9 	bl	80022c8 <HAL_GetTick>
 8002d36:	1b40      	subs	r0, r0, r5
 8002d38:	2802      	cmp	r0, #2
 8002d3a:	f63f af77 	bhi.w	8002c2c <HAL_RCC_OscConfig+0x250>
 8002d3e:	6823      	ldr	r3, [r4, #0]
 8002d40:	019a      	lsls	r2, r3, #6
 8002d42:	d5f6      	bpl.n	8002d32 <HAL_RCC_OscConfig+0x356>
 8002d44:	e6f8      	b.n	8002b38 <HAL_RCC_OscConfig+0x15c>
 8002d46:	bf00      	nop
 8002d48:	40023800 	.word	0x40023800
 8002d4c:	42470060 	.word	0x42470060

08002d50 <HAL_RCC_GetSysClockFreq>:
 8002d50:	4917      	ldr	r1, [pc, #92]	; (8002db0 <HAL_RCC_GetSysClockFreq+0x60>)
 8002d52:	b508      	push	{r3, lr}
 8002d54:	688b      	ldr	r3, [r1, #8]
 8002d56:	f003 030c 	and.w	r3, r3, #12
 8002d5a:	2b04      	cmp	r3, #4
 8002d5c:	d01b      	beq.n	8002d96 <HAL_RCC_GetSysClockFreq+0x46>
 8002d5e:	2b08      	cmp	r3, #8
 8002d60:	d117      	bne.n	8002d92 <HAL_RCC_GetSysClockFreq+0x42>
 8002d62:	684a      	ldr	r2, [r1, #4]
 8002d64:	684b      	ldr	r3, [r1, #4]
 8002d66:	f413 0380 	ands.w	r3, r3, #4194304	; 0x400000
 8002d6a:	f002 023f 	and.w	r2, r2, #63	; 0x3f
 8002d6e:	d114      	bne.n	8002d9a <HAL_RCC_GetSysClockFreq+0x4a>
 8002d70:	6849      	ldr	r1, [r1, #4]
 8002d72:	4810      	ldr	r0, [pc, #64]	; (8002db4 <HAL_RCC_GetSysClockFreq+0x64>)
 8002d74:	f3c1 1188 	ubfx	r1, r1, #6, #9
 8002d78:	fba1 0100 	umull	r0, r1, r1, r0
 8002d7c:	f7fd fa38 	bl	80001f0 <__aeabi_uldivmod>
 8002d80:	4b0b      	ldr	r3, [pc, #44]	; (8002db0 <HAL_RCC_GetSysClockFreq+0x60>)
 8002d82:	685b      	ldr	r3, [r3, #4]
 8002d84:	f3c3 4301 	ubfx	r3, r3, #16, #2
 8002d88:	3301      	adds	r3, #1
 8002d8a:	005b      	lsls	r3, r3, #1
 8002d8c:	fbb0 f0f3 	udiv	r0, r0, r3
 8002d90:	bd08      	pop	{r3, pc}
 8002d92:	4808      	ldr	r0, [pc, #32]	; (8002db4 <HAL_RCC_GetSysClockFreq+0x64>)
 8002d94:	bd08      	pop	{r3, pc}
 8002d96:	4808      	ldr	r0, [pc, #32]	; (8002db8 <HAL_RCC_GetSysClockFreq+0x68>)
 8002d98:	bd08      	pop	{r3, pc}
 8002d9a:	684b      	ldr	r3, [r1, #4]
 8002d9c:	4806      	ldr	r0, [pc, #24]	; (8002db8 <HAL_RCC_GetSysClockFreq+0x68>)
 8002d9e:	f3c3 1388 	ubfx	r3, r3, #6, #9
 8002da2:	fba3 0100 	umull	r0, r1, r3, r0
 8002da6:	2300      	movs	r3, #0
 8002da8:	f7fd fa22 	bl	80001f0 <__aeabi_uldivmod>
 8002dac:	e7e8      	b.n	8002d80 <HAL_RCC_GetSysClockFreq+0x30>
 8002dae:	bf00      	nop
 8002db0:	40023800 	.word	0x40023800
 8002db4:	00f42400 	.word	0x00f42400
 8002db8:	017d7840 	.word	0x017d7840

08002dbc <HAL_RCC_ClockConfig>:
 8002dbc:	b160      	cbz	r0, 8002dd8 <HAL_RCC_ClockConfig+0x1c>
 8002dbe:	4a48      	ldr	r2, [pc, #288]	; (8002ee0 <HAL_RCC_ClockConfig+0x124>)
 8002dc0:	6813      	ldr	r3, [r2, #0]
 8002dc2:	f003 030f 	and.w	r3, r3, #15
 8002dc6:	428b      	cmp	r3, r1
 8002dc8:	d208      	bcs.n	8002ddc <HAL_RCC_ClockConfig+0x20>
 8002dca:	b2cb      	uxtb	r3, r1
 8002dcc:	7013      	strb	r3, [r2, #0]
 8002dce:	6813      	ldr	r3, [r2, #0]
 8002dd0:	f003 030f 	and.w	r3, r3, #15
 8002dd4:	428b      	cmp	r3, r1
 8002dd6:	d001      	beq.n	8002ddc <HAL_RCC_ClockConfig+0x20>
 8002dd8:	2001      	movs	r0, #1
 8002dda:	4770      	bx	lr
 8002ddc:	6803      	ldr	r3, [r0, #0]
 8002dde:	e92d 41f0 	stmdb	sp!, {r4, r5, r6, r7, r8, lr}
 8002de2:	079d      	lsls	r5, r3, #30
 8002de4:	d514      	bpl.n	8002e10 <HAL_RCC_ClockConfig+0x54>
 8002de6:	075c      	lsls	r4, r3, #29
 8002de8:	d504      	bpl.n	8002df4 <HAL_RCC_ClockConfig+0x38>
 8002dea:	4c3e      	ldr	r4, [pc, #248]	; (8002ee4 <HAL_RCC_ClockConfig+0x128>)
 8002dec:	68a2      	ldr	r2, [r4, #8]
 8002dee:	f442 52e0 	orr.w	r2, r2, #7168	; 0x1c00
 8002df2:	60a2      	str	r2, [r4, #8]
 8002df4:	071a      	lsls	r2, r3, #28
 8002df6:	d504      	bpl.n	8002e02 <HAL_RCC_ClockConfig+0x46>
 8002df8:	4c3a      	ldr	r4, [pc, #232]	; (8002ee4 <HAL_RCC_ClockConfig+0x128>)
 8002dfa:	68a2      	ldr	r2, [r4, #8]
 8002dfc:	f442 4260 	orr.w	r2, r2, #57344	; 0xe000
 8002e00:	60a2      	str	r2, [r4, #8]
 8002e02:	4c38      	ldr	r4, [pc, #224]	; (8002ee4 <HAL_RCC_ClockConfig+0x128>)
 8002e04:	6885      	ldr	r5, [r0, #8]
 8002e06:	68a2      	ldr	r2, [r4, #8]
 8002e08:	f022 02f0 	bic.w	r2, r2, #240	; 0xf0
 8002e0c:	432a      	orrs	r2, r5
 8002e0e:	60a2      	str	r2, [r4, #8]
 8002e10:	07df      	lsls	r7, r3, #31
 8002e12:	4604      	mov	r4, r0
 8002e14:	460d      	mov	r5, r1
 8002e16:	d522      	bpl.n	8002e5e <HAL_RCC_ClockConfig+0xa2>
 8002e18:	6842      	ldr	r2, [r0, #4]
 8002e1a:	2a01      	cmp	r2, #1
 8002e1c:	d056      	beq.n	8002ecc <HAL_RCC_ClockConfig+0x110>
 8002e1e:	1e93      	subs	r3, r2, #2
 8002e20:	2b01      	cmp	r3, #1
 8002e22:	4b30      	ldr	r3, [pc, #192]	; (8002ee4 <HAL_RCC_ClockConfig+0x128>)
 8002e24:	681b      	ldr	r3, [r3, #0]
 8002e26:	d958      	bls.n	8002eda <HAL_RCC_ClockConfig+0x11e>
 8002e28:	0799      	lsls	r1, r3, #30
 8002e2a:	d525      	bpl.n	8002e78 <HAL_RCC_ClockConfig+0xbc>
 8002e2c:	4e2d      	ldr	r6, [pc, #180]	; (8002ee4 <HAL_RCC_ClockConfig+0x128>)
 8002e2e:	68b3      	ldr	r3, [r6, #8]
 8002e30:	f023 0303 	bic.w	r3, r3, #3
 8002e34:	4313      	orrs	r3, r2
 8002e36:	60b3      	str	r3, [r6, #8]
 8002e38:	f7ff fa46 	bl	80022c8 <HAL_GetTick>
 8002e3c:	f241 3788 	movw	r7, #5000	; 0x1388
 8002e40:	4680      	mov	r8, r0
 8002e42:	e005      	b.n	8002e50 <HAL_RCC_ClockConfig+0x94>
 8002e44:	f7ff fa40 	bl	80022c8 <HAL_GetTick>
 8002e48:	eba0 0008 	sub.w	r0, r0, r8
 8002e4c:	42b8      	cmp	r0, r7
 8002e4e:	d842      	bhi.n	8002ed6 <HAL_RCC_ClockConfig+0x11a>
 8002e50:	68b3      	ldr	r3, [r6, #8]
 8002e52:	6862      	ldr	r2, [r4, #4]
 8002e54:	f003 030c 	and.w	r3, r3, #12
 8002e58:	ebb3 0f82 	cmp.w	r3, r2, lsl #2
 8002e5c:	d1f2      	bne.n	8002e44 <HAL_RCC_ClockConfig+0x88>
 8002e5e:	4a20      	ldr	r2, [pc, #128]	; (8002ee0 <HAL_RCC_ClockConfig+0x124>)
 8002e60:	6813      	ldr	r3, [r2, #0]
 8002e62:	f003 030f 	and.w	r3, r3, #15
 8002e66:	42ab      	cmp	r3, r5
 8002e68:	d909      	bls.n	8002e7e <HAL_RCC_ClockConfig+0xc2>
 8002e6a:	b2eb      	uxtb	r3, r5
 8002e6c:	7013      	strb	r3, [r2, #0]
 8002e6e:	6813      	ldr	r3, [r2, #0]
 8002e70:	f003 030f 	and.w	r3, r3, #15
 8002e74:	42ab      	cmp	r3, r5
 8002e76:	d002      	beq.n	8002e7e <HAL_RCC_ClockConfig+0xc2>
 8002e78:	2001      	movs	r0, #1
 8002e7a:	e8bd 81f0 	ldmia.w	sp!, {r4, r5, r6, r7, r8, pc}
 8002e7e:	6823      	ldr	r3, [r4, #0]
 8002e80:	075a      	lsls	r2, r3, #29
 8002e82:	d506      	bpl.n	8002e92 <HAL_RCC_ClockConfig+0xd6>
 8002e84:	4917      	ldr	r1, [pc, #92]	; (8002ee4 <HAL_RCC_ClockConfig+0x128>)
 8002e86:	68e0      	ldr	r0, [r4, #12]
 8002e88:	688a      	ldr	r2, [r1, #8]
 8002e8a:	f422 52e0 	bic.w	r2, r2, #7168	; 0x1c00
 8002e8e:	4302      	orrs	r2, r0
 8002e90:	608a      	str	r2, [r1, #8]
 8002e92:	071b      	lsls	r3, r3, #28
 8002e94:	d411      	bmi.n	8002eba <HAL_RCC_ClockConfig+0xfe>
 8002e96:	f7ff ff5b 	bl	8002d50 <HAL_RCC_GetSysClockFreq>
 8002e9a:	4b12      	ldr	r3, [pc, #72]	; (8002ee4 <HAL_RCC_ClockConfig+0x128>)
 8002e9c:	4912      	ldr	r1, [pc, #72]	; (8002ee8 <HAL_RCC_ClockConfig+0x12c>)
 8002e9e:	689b      	ldr	r3, [r3, #8]
 8002ea0:	4a12      	ldr	r2, [pc, #72]	; (8002eec <HAL_RCC_ClockConfig+0x130>)
 8002ea2:	f3c3 1303 	ubfx	r3, r3, #4, #4
 8002ea6:	5ccb      	ldrb	r3, [r1, r3]
 8002ea8:	fa20 f303 	lsr.w	r3, r0, r3
 8002eac:	2000      	movs	r0, #0
 8002eae:	6013      	str	r3, [r2, #0]
 8002eb0:	f7ff f9c0 	bl	8002234 <HAL_InitTick>
 8002eb4:	2000      	movs	r0, #0
 8002eb6:	e8bd 81f0 	ldmia.w	sp!, {r4, r5, r6, r7, r8, pc}
 8002eba:	4a0a      	ldr	r2, [pc, #40]	; (8002ee4 <HAL_RCC_ClockConfig+0x128>)
 8002ebc:	6921      	ldr	r1, [r4, #16]
 8002ebe:	6893      	ldr	r3, [r2, #8]
 8002ec0:	f423 4360 	bic.w	r3, r3, #57344	; 0xe000
 8002ec4:	ea43 03c1 	orr.w	r3, r3, r1, lsl #3
 8002ec8:	6093      	str	r3, [r2, #8]
 8002eca:	e7e4      	b.n	8002e96 <HAL_RCC_ClockConfig+0xda>
 8002ecc:	4b05      	ldr	r3, [pc, #20]	; (8002ee4 <HAL_RCC_ClockConfig+0x128>)
 8002ece:	681b      	ldr	r3, [r3, #0]
 8002ed0:	039e      	lsls	r6, r3, #14
 8002ed2:	d4ab      	bmi.n	8002e2c <HAL_RCC_ClockConfig+0x70>
 8002ed4:	e7d0      	b.n	8002e78 <HAL_RCC_ClockConfig+0xbc>
 8002ed6:	2003      	movs	r0, #3
 8002ed8:	e7ed      	b.n	8002eb6 <HAL_RCC_ClockConfig+0xfa>
 8002eda:	0198      	lsls	r0, r3, #6
 8002edc:	d4a6      	bmi.n	8002e2c <HAL_RCC_ClockConfig+0x70>
 8002ede:	e7cb      	b.n	8002e78 <HAL_RCC_ClockConfig+0xbc>
 8002ee0:	40023c00 	.word	0x40023c00
 8002ee4:	40023800 	.word	0x40023800
 8002ee8:	08003d78 	.word	0x08003d78
 8002eec:	20000678 	.word	0x20000678

08002ef0 <HAL_SPI_Init>:
 8002ef0:	2800      	cmp	r0, #0
 8002ef2:	d03b      	beq.n	8002f6c <HAL_SPI_Init+0x7c>
 8002ef4:	f890 2051 	ldrb.w	r2, [r0, #81]	; 0x51
 8002ef8:	2300      	movs	r3, #0
 8002efa:	b570      	push	{r4, r5, r6, lr}
 8002efc:	f002 01ff 	and.w	r1, r2, #255	; 0xff
 8002f00:	4604      	mov	r4, r0
 8002f02:	6283      	str	r3, [r0, #40]	; 0x28
 8002f04:	b362      	cbz	r2, 8002f60 <HAL_SPI_Init+0x70>
 8002f06:	4618      	mov	r0, r3
 8002f08:	e9d4 3501 	ldrd	r3, r5, [r4, #4]
 8002f0c:	e9d4 2103 	ldrd	r2, r1, [r4, #12]
 8002f10:	432b      	orrs	r3, r5
 8002f12:	4313      	orrs	r3, r2
 8002f14:	6962      	ldr	r2, [r4, #20]
 8002f16:	69e5      	ldr	r5, [r4, #28]
 8002f18:	6a26      	ldr	r6, [r4, #32]
 8002f1a:	430b      	orrs	r3, r1
 8002f1c:	4313      	orrs	r3, r2
 8002f1e:	69a2      	ldr	r2, [r4, #24]
 8002f20:	6821      	ldr	r1, [r4, #0]
 8002f22:	432b      	orrs	r3, r5
 8002f24:	2502      	movs	r5, #2
 8002f26:	f884 5051 	strb.w	r5, [r4, #81]	; 0x51
 8002f2a:	4333      	orrs	r3, r6
 8002f2c:	f402 7500 	and.w	r5, r2, #512	; 0x200
 8002f30:	680e      	ldr	r6, [r1, #0]
 8002f32:	432b      	orrs	r3, r5
 8002f34:	0c12      	lsrs	r2, r2, #16
 8002f36:	6a65      	ldr	r5, [r4, #36]	; 0x24
 8002f38:	f002 0204 	and.w	r2, r2, #4
 8002f3c:	4303      	orrs	r3, r0
 8002f3e:	432a      	orrs	r2, r5
 8002f40:	f026 0640 	bic.w	r6, r6, #64	; 0x40
 8002f44:	600e      	str	r6, [r1, #0]
 8002f46:	600b      	str	r3, [r1, #0]
 8002f48:	604a      	str	r2, [r1, #4]
 8002f4a:	69cb      	ldr	r3, [r1, #28]
 8002f4c:	2200      	movs	r2, #0
 8002f4e:	f423 6300 	bic.w	r3, r3, #2048	; 0x800
 8002f52:	2501      	movs	r5, #1
 8002f54:	61cb      	str	r3, [r1, #28]
 8002f56:	4610      	mov	r0, r2
 8002f58:	6562      	str	r2, [r4, #84]	; 0x54
 8002f5a:	f884 5051 	strb.w	r5, [r4, #81]	; 0x51
 8002f5e:	bd70      	pop	{r4, r5, r6, pc}
 8002f60:	f880 1050 	strb.w	r1, [r0, #80]	; 0x50
 8002f64:	f7fe fe96 	bl	8001c94 <HAL_SPI_MspInit>
 8002f68:	6aa0      	ldr	r0, [r4, #40]	; 0x28
 8002f6a:	e7cd      	b.n	8002f08 <HAL_SPI_Init+0x18>
 8002f6c:	2001      	movs	r0, #1
 8002f6e:	4770      	bx	lr

08002f70 <HAL_SPI_RxCpltCallback>:
 8002f70:	4770      	bx	lr
 8002f72:	bf00      	nop

08002f74 <HAL_TIM_Base_Init>:
 8002f74:	2800      	cmp	r0, #0
 8002f76:	d05c      	beq.n	8003032 <HAL_TIM_Base_Init+0xbe>
 8002f78:	b5f8      	push	{r3, r4, r5, r6, r7, lr}
 8002f7a:	f890 303d 	ldrb.w	r3, [r0, #61]	; 0x3d
 8002f7e:	4604      	mov	r4, r0
 8002f80:	f003 02ff 	and.w	r2, r3, #255	; 0xff
 8002f84:	b3bb      	cbz	r3, 8002ff6 <HAL_TIM_Base_Init+0x82>
 8002f86:	6822      	ldr	r2, [r4, #0]
 8002f88:	4e3a      	ldr	r6, [pc, #232]	; (8003074 <HAL_TIM_Base_Init+0x100>)
 8002f8a:	69a5      	ldr	r5, [r4, #24]
 8002f8c:	68e0      	ldr	r0, [r4, #12]
 8002f8e:	6861      	ldr	r1, [r4, #4]
 8002f90:	2302      	movs	r3, #2
 8002f92:	f884 303d 	strb.w	r3, [r4, #61]	; 0x3d
 8002f96:	42b2      	cmp	r2, r6
 8002f98:	6813      	ldr	r3, [r2, #0]
 8002f9a:	d04c      	beq.n	8003036 <HAL_TIM_Base_Init+0xc2>
 8002f9c:	f1b2 4f80 	cmp.w	r2, #1073741824	; 0x40000000
 8002fa0:	d058      	beq.n	8003054 <HAL_TIM_Base_Init+0xe0>
 8002fa2:	f5a6 467c 	sub.w	r6, r6, #64512	; 0xfc00
 8002fa6:	42b2      	cmp	r2, r6
 8002fa8:	d02a      	beq.n	8003000 <HAL_TIM_Base_Init+0x8c>
 8002faa:	f506 6680 	add.w	r6, r6, #1024	; 0x400
 8002fae:	42b2      	cmp	r2, r6
 8002fb0:	d026      	beq.n	8003000 <HAL_TIM_Base_Init+0x8c>
 8002fb2:	f506 6680 	add.w	r6, r6, #1024	; 0x400
 8002fb6:	42b2      	cmp	r2, r6
 8002fb8:	d022      	beq.n	8003000 <HAL_TIM_Base_Init+0x8c>
 8002fba:	f506 4678 	add.w	r6, r6, #63488	; 0xf800
 8002fbe:	42b2      	cmp	r2, r6
 8002fc0:	d01e      	beq.n	8003000 <HAL_TIM_Base_Init+0x8c>
 8002fc2:	f506 5670 	add.w	r6, r6, #15360	; 0x3c00
 8002fc6:	42b2      	cmp	r2, r6
 8002fc8:	d013      	beq.n	8002ff2 <HAL_TIM_Base_Init+0x7e>
 8002fca:	f506 6680 	add.w	r6, r6, #1024	; 0x400
 8002fce:	42b2      	cmp	r2, r6
 8002fd0:	d00f      	beq.n	8002ff2 <HAL_TIM_Base_Init+0x7e>
 8002fd2:	f506 6680 	add.w	r6, r6, #1024	; 0x400
 8002fd6:	42b2      	cmp	r2, r6
 8002fd8:	d00b      	beq.n	8002ff2 <HAL_TIM_Base_Init+0x7e>
 8002fda:	f5a6 3698 	sub.w	r6, r6, #77824	; 0x13000
 8002fde:	42b2      	cmp	r2, r6
 8002fe0:	d007      	beq.n	8002ff2 <HAL_TIM_Base_Init+0x7e>
 8002fe2:	f506 6680 	add.w	r6, r6, #1024	; 0x400
 8002fe6:	42b2      	cmp	r2, r6
 8002fe8:	d003      	beq.n	8002ff2 <HAL_TIM_Base_Init+0x7e>
 8002fea:	f506 6680 	add.w	r6, r6, #1024	; 0x400
 8002fee:	42b2      	cmp	r2, r6
 8002ff0:	d138      	bne.n	8003064 <HAL_TIM_Base_Init+0xf0>
 8002ff2:	6926      	ldr	r6, [r4, #16]
 8002ff4:	e033      	b.n	800305e <HAL_TIM_Base_Init+0xea>
 8002ff6:	f880 203c 	strb.w	r2, [r0, #60]	; 0x3c
 8002ffa:	f7ff f823 	bl	8002044 <HAL_TIM_Base_MspInit>
 8002ffe:	e7c2      	b.n	8002f86 <HAL_TIM_Base_Init+0x12>
 8003000:	68a6      	ldr	r6, [r4, #8]
 8003002:	4f1d      	ldr	r7, [pc, #116]	; (8003078 <HAL_TIM_Base_Init+0x104>)
 8003004:	f023 0370 	bic.w	r3, r3, #112	; 0x70
 8003008:	4333      	orrs	r3, r6
 800300a:	6926      	ldr	r6, [r4, #16]
 800300c:	f423 7340 	bic.w	r3, r3, #768	; 0x300
 8003010:	4333      	orrs	r3, r6
 8003012:	f023 0380 	bic.w	r3, r3, #128	; 0x80
 8003016:	432b      	orrs	r3, r5
 8003018:	42ba      	cmp	r2, r7
 800301a:	6013      	str	r3, [r2, #0]
 800301c:	62d0      	str	r0, [r2, #44]	; 0x2c
 800301e:	6291      	str	r1, [r2, #40]	; 0x28
 8003020:	d101      	bne.n	8003026 <HAL_TIM_Base_Init+0xb2>
 8003022:	6963      	ldr	r3, [r4, #20]
 8003024:	6313      	str	r3, [r2, #48]	; 0x30
 8003026:	2301      	movs	r3, #1
 8003028:	6153      	str	r3, [r2, #20]
 800302a:	2000      	movs	r0, #0
 800302c:	f884 303d 	strb.w	r3, [r4, #61]	; 0x3d
 8003030:	bdf8      	pop	{r3, r4, r5, r6, r7, pc}
 8003032:	2001      	movs	r0, #1
 8003034:	4770      	bx	lr
 8003036:	68a7      	ldr	r7, [r4, #8]
 8003038:	6926      	ldr	r6, [r4, #16]
 800303a:	f023 0370 	bic.w	r3, r3, #112	; 0x70
 800303e:	433b      	orrs	r3, r7
 8003040:	f423 7340 	bic.w	r3, r3, #768	; 0x300
 8003044:	4333      	orrs	r3, r6
 8003046:	f023 0380 	bic.w	r3, r3, #128	; 0x80
 800304a:	432b      	orrs	r3, r5
 800304c:	6013      	str	r3, [r2, #0]
 800304e:	62d0      	str	r0, [r2, #44]	; 0x2c
 8003050:	6291      	str	r1, [r2, #40]	; 0x28
 8003052:	e7e6      	b.n	8003022 <HAL_TIM_Base_Init+0xae>
 8003054:	68a7      	ldr	r7, [r4, #8]
 8003056:	6926      	ldr	r6, [r4, #16]
 8003058:	f023 0370 	bic.w	r3, r3, #112	; 0x70
 800305c:	433b      	orrs	r3, r7
 800305e:	f423 7340 	bic.w	r3, r3, #768	; 0x300
 8003062:	4333      	orrs	r3, r6
 8003064:	f023 0380 	bic.w	r3, r3, #128	; 0x80
 8003068:	432b      	orrs	r3, r5
 800306a:	6013      	str	r3, [r2, #0]
 800306c:	62d0      	str	r0, [r2, #44]	; 0x2c
 800306e:	6291      	str	r1, [r2, #40]	; 0x28
 8003070:	e7d9      	b.n	8003026 <HAL_TIM_Base_Init+0xb2>
 8003072:	bf00      	nop
 8003074:	40010000 	.word	0x40010000
 8003078:	40010400 	.word	0x40010400

0800307c <HAL_TIM_Base_Stop_IT>:
 800307c:	6803      	ldr	r3, [r0, #0]
 800307e:	68da      	ldr	r2, [r3, #12]
 8003080:	f022 0201 	bic.w	r2, r2, #1
 8003084:	60da      	str	r2, [r3, #12]
 8003086:	6a19      	ldr	r1, [r3, #32]
 8003088:	f241 1211 	movw	r2, #4369	; 0x1111
 800308c:	4211      	tst	r1, r2
 800308e:	d108      	bne.n	80030a2 <HAL_TIM_Base_Stop_IT+0x26>
 8003090:	6a19      	ldr	r1, [r3, #32]
 8003092:	f240 4244 	movw	r2, #1092	; 0x444
 8003096:	4211      	tst	r1, r2
 8003098:	d103      	bne.n	80030a2 <HAL_TIM_Base_Stop_IT+0x26>
 800309a:	681a      	ldr	r2, [r3, #0]
 800309c:	f022 0201 	bic.w	r2, r2, #1
 80030a0:	601a      	str	r2, [r3, #0]
 80030a2:	2000      	movs	r0, #0
 80030a4:	4770      	bx	lr
 80030a6:	bf00      	nop

080030a8 <HAL_TIM_ConfigClockSource>:
 80030a8:	f890 303c 	ldrb.w	r3, [r0, #60]	; 0x3c
 80030ac:	2b01      	cmp	r3, #1
 80030ae:	d05a      	beq.n	8003166 <HAL_TIM_ConfigClockSource+0xbe>
 80030b0:	2202      	movs	r2, #2
 80030b2:	6803      	ldr	r3, [r0, #0]
 80030b4:	b4f0      	push	{r4, r5, r6, r7}
 80030b6:	f880 203d 	strb.w	r2, [r0, #61]	; 0x3d
 80030ba:	689a      	ldr	r2, [r3, #8]
 80030bc:	680c      	ldr	r4, [r1, #0]
 80030be:	f422 427f 	bic.w	r2, r2, #65280	; 0xff00
 80030c2:	f022 0277 	bic.w	r2, r2, #119	; 0x77
 80030c6:	2501      	movs	r5, #1
 80030c8:	2c40      	cmp	r4, #64	; 0x40
 80030ca:	f880 503c 	strb.w	r5, [r0, #60]	; 0x3c
 80030ce:	609a      	str	r2, [r3, #8]
 80030d0:	d074      	beq.n	80031bc <HAL_TIM_ConfigClockSource+0x114>
 80030d2:	d94a      	bls.n	800316a <HAL_TIM_ConfigClockSource+0xc2>
 80030d4:	2c60      	cmp	r4, #96	; 0x60
 80030d6:	d02d      	beq.n	8003134 <HAL_TIM_ConfigClockSource+0x8c>
 80030d8:	d956      	bls.n	8003188 <HAL_TIM_ConfigClockSource+0xe0>
 80030da:	2c70      	cmp	r4, #112	; 0x70
 80030dc:	d01a      	beq.n	8003114 <HAL_TIM_ConfigClockSource+0x6c>
 80030de:	f5b4 5f00 	cmp.w	r4, #8192	; 0x2000
 80030e2:	d10e      	bne.n	8003102 <HAL_TIM_ConfigClockSource+0x5a>
 80030e4:	e9d1 5201 	ldrd	r5, r2, [r1, #4]
 80030e8:	68cc      	ldr	r4, [r1, #12]
 80030ea:	6899      	ldr	r1, [r3, #8]
 80030ec:	432a      	orrs	r2, r5
 80030ee:	ea42 2204 	orr.w	r2, r2, r4, lsl #8
 80030f2:	f421 417f 	bic.w	r1, r1, #65280	; 0xff00
 80030f6:	430a      	orrs	r2, r1
 80030f8:	609a      	str	r2, [r3, #8]
 80030fa:	689a      	ldr	r2, [r3, #8]
 80030fc:	f442 4280 	orr.w	r2, r2, #16384	; 0x4000
 8003100:	609a      	str	r2, [r3, #8]
 8003102:	2300      	movs	r3, #0
 8003104:	2201      	movs	r2, #1
 8003106:	f880 203d 	strb.w	r2, [r0, #61]	; 0x3d
 800310a:	f880 303c 	strb.w	r3, [r0, #60]	; 0x3c
 800310e:	bcf0      	pop	{r4, r5, r6, r7}
 8003110:	4618      	mov	r0, r3
 8003112:	4770      	bx	lr
 8003114:	e9d1 5201 	ldrd	r5, r2, [r1, #4]
 8003118:	68cc      	ldr	r4, [r1, #12]
 800311a:	6899      	ldr	r1, [r3, #8]
 800311c:	432a      	orrs	r2, r5
 800311e:	ea42 2204 	orr.w	r2, r2, r4, lsl #8
 8003122:	f421 417f 	bic.w	r1, r1, #65280	; 0xff00
 8003126:	430a      	orrs	r2, r1
 8003128:	609a      	str	r2, [r3, #8]
 800312a:	689a      	ldr	r2, [r3, #8]
 800312c:	f042 0277 	orr.w	r2, r2, #119	; 0x77
 8003130:	609a      	str	r2, [r3, #8]
 8003132:	e7e6      	b.n	8003102 <HAL_TIM_ConfigClockSource+0x5a>
 8003134:	6a1c      	ldr	r4, [r3, #32]
 8003136:	684d      	ldr	r5, [r1, #4]
 8003138:	68ce      	ldr	r6, [r1, #12]
 800313a:	f024 0410 	bic.w	r4, r4, #16
 800313e:	621c      	str	r4, [r3, #32]
 8003140:	6999      	ldr	r1, [r3, #24]
 8003142:	6a1a      	ldr	r2, [r3, #32]
 8003144:	f421 4170 	bic.w	r1, r1, #61440	; 0xf000
 8003148:	f022 02a0 	bic.w	r2, r2, #160	; 0xa0
 800314c:	ea42 1205 	orr.w	r2, r2, r5, lsl #4
 8003150:	ea41 3106 	orr.w	r1, r1, r6, lsl #12
 8003154:	6199      	str	r1, [r3, #24]
 8003156:	621a      	str	r2, [r3, #32]
 8003158:	689a      	ldr	r2, [r3, #8]
 800315a:	f022 0270 	bic.w	r2, r2, #112	; 0x70
 800315e:	f042 0267 	orr.w	r2, r2, #103	; 0x67
 8003162:	609a      	str	r2, [r3, #8]
 8003164:	e7cd      	b.n	8003102 <HAL_TIM_ConfigClockSource+0x5a>
 8003166:	2002      	movs	r0, #2
 8003168:	4770      	bx	lr
 800316a:	2c10      	cmp	r4, #16
 800316c:	d004      	beq.n	8003178 <HAL_TIM_ConfigClockSource+0xd0>
 800316e:	d93d      	bls.n	80031ec <HAL_TIM_ConfigClockSource+0x144>
 8003170:	2c20      	cmp	r4, #32
 8003172:	d001      	beq.n	8003178 <HAL_TIM_ConfigClockSource+0xd0>
 8003174:	2c30      	cmp	r4, #48	; 0x30
 8003176:	d1c4      	bne.n	8003102 <HAL_TIM_ConfigClockSource+0x5a>
 8003178:	689a      	ldr	r2, [r3, #8]
 800317a:	f044 0407 	orr.w	r4, r4, #7
 800317e:	f022 0270 	bic.w	r2, r2, #112	; 0x70
 8003182:	4314      	orrs	r4, r2
 8003184:	609c      	str	r4, [r3, #8]
 8003186:	e7bc      	b.n	8003102 <HAL_TIM_ConfigClockSource+0x5a>
 8003188:	2c50      	cmp	r4, #80	; 0x50
 800318a:	d1ba      	bne.n	8003102 <HAL_TIM_ConfigClockSource+0x5a>
 800318c:	6a1d      	ldr	r5, [r3, #32]
 800318e:	6a1e      	ldr	r6, [r3, #32]
 8003190:	684c      	ldr	r4, [r1, #4]
 8003192:	68cf      	ldr	r7, [r1, #12]
 8003194:	f026 0601 	bic.w	r6, r6, #1
 8003198:	621e      	str	r6, [r3, #32]
 800319a:	699a      	ldr	r2, [r3, #24]
 800319c:	f025 010a 	bic.w	r1, r5, #10
 80031a0:	f022 02f0 	bic.w	r2, r2, #240	; 0xf0
 80031a4:	ea42 1207 	orr.w	r2, r2, r7, lsl #4
 80031a8:	4321      	orrs	r1, r4
 80031aa:	619a      	str	r2, [r3, #24]
 80031ac:	6219      	str	r1, [r3, #32]
 80031ae:	689a      	ldr	r2, [r3, #8]
 80031b0:	f022 0270 	bic.w	r2, r2, #112	; 0x70
 80031b4:	f042 0257 	orr.w	r2, r2, #87	; 0x57
 80031b8:	609a      	str	r2, [r3, #8]
 80031ba:	e7a2      	b.n	8003102 <HAL_TIM_ConfigClockSource+0x5a>
 80031bc:	6a1d      	ldr	r5, [r3, #32]
 80031be:	6a1e      	ldr	r6, [r3, #32]
 80031c0:	684c      	ldr	r4, [r1, #4]
 80031c2:	68cf      	ldr	r7, [r1, #12]
 80031c4:	f026 0601 	bic.w	r6, r6, #1
 80031c8:	621e      	str	r6, [r3, #32]
 80031ca:	699a      	ldr	r2, [r3, #24]
 80031cc:	f025 010a 	bic.w	r1, r5, #10
 80031d0:	f022 02f0 	bic.w	r2, r2, #240	; 0xf0
 80031d4:	ea42 1207 	orr.w	r2, r2, r7, lsl #4
 80031d8:	4321      	orrs	r1, r4
 80031da:	619a      	str	r2, [r3, #24]
 80031dc:	6219      	str	r1, [r3, #32]
 80031de:	689a      	ldr	r2, [r3, #8]
 80031e0:	f022 0270 	bic.w	r2, r2, #112	; 0x70
 80031e4:	f042 0247 	orr.w	r2, r2, #71	; 0x47
 80031e8:	609a      	str	r2, [r3, #8]
 80031ea:	e78a      	b.n	8003102 <HAL_TIM_ConfigClockSource+0x5a>
 80031ec:	2c00      	cmp	r4, #0
 80031ee:	d0c3      	beq.n	8003178 <HAL_TIM_ConfigClockSource+0xd0>
 80031f0:	e787      	b.n	8003102 <HAL_TIM_ConfigClockSource+0x5a>
 80031f2:	bf00      	nop

080031f4 <HAL_TIM_OC_DelayElapsedCallback>:
 80031f4:	4770      	bx	lr
 80031f6:	bf00      	nop

080031f8 <HAL_TIM_IC_CaptureCallback>:
 80031f8:	4770      	bx	lr
 80031fa:	bf00      	nop

080031fc <HAL_TIM_PWM_PulseFinishedCallback>:
 80031fc:	4770      	bx	lr
 80031fe:	bf00      	nop

08003200 <HAL_TIM_TriggerCallback>:
 8003200:	4770      	bx	lr
 8003202:	bf00      	nop

08003204 <HAL_TIM_IRQHandler>:
 8003204:	6803      	ldr	r3, [r0, #0]
 8003206:	691a      	ldr	r2, [r3, #16]
 8003208:	0791      	lsls	r1, r2, #30
 800320a:	b510      	push	{r4, lr}
 800320c:	4604      	mov	r4, r0
 800320e:	d502      	bpl.n	8003216 <HAL_TIM_IRQHandler+0x12>
 8003210:	68da      	ldr	r2, [r3, #12]
 8003212:	0792      	lsls	r2, r2, #30
 8003214:	d45f      	bmi.n	80032d6 <HAL_TIM_IRQHandler+0xd2>
 8003216:	691a      	ldr	r2, [r3, #16]
 8003218:	0750      	lsls	r0, r2, #29
 800321a:	d502      	bpl.n	8003222 <HAL_TIM_IRQHandler+0x1e>
 800321c:	68da      	ldr	r2, [r3, #12]
 800321e:	0751      	lsls	r1, r2, #29
 8003220:	d446      	bmi.n	80032b0 <HAL_TIM_IRQHandler+0xac>
 8003222:	691a      	ldr	r2, [r3, #16]
 8003224:	0712      	lsls	r2, r2, #28
 8003226:	d502      	bpl.n	800322e <HAL_TIM_IRQHandler+0x2a>
 8003228:	68da      	ldr	r2, [r3, #12]
 800322a:	0710      	lsls	r0, r2, #28
 800322c:	d42e      	bmi.n	800328c <HAL_TIM_IRQHandler+0x88>
 800322e:	691a      	ldr	r2, [r3, #16]
 8003230:	06d2      	lsls	r2, r2, #27
 8003232:	d502      	bpl.n	800323a <HAL_TIM_IRQHandler+0x36>
 8003234:	68da      	ldr	r2, [r3, #12]
 8003236:	06d0      	lsls	r0, r2, #27
 8003238:	d418      	bmi.n	800326c <HAL_TIM_IRQHandler+0x68>
 800323a:	691a      	ldr	r2, [r3, #16]
 800323c:	07d1      	lsls	r1, r2, #31
 800323e:	d502      	bpl.n	8003246 <HAL_TIM_IRQHandler+0x42>
 8003240:	68da      	ldr	r2, [r3, #12]
 8003242:	07d2      	lsls	r2, r2, #31
 8003244:	d45d      	bmi.n	8003302 <HAL_TIM_IRQHandler+0xfe>
 8003246:	691a      	ldr	r2, [r3, #16]
 8003248:	0610      	lsls	r0, r2, #24
 800324a:	d502      	bpl.n	8003252 <HAL_TIM_IRQHandler+0x4e>
 800324c:	68da      	ldr	r2, [r3, #12]
 800324e:	0611      	lsls	r1, r2, #24
 8003250:	d45f      	bmi.n	8003312 <HAL_TIM_IRQHandler+0x10e>
 8003252:	691a      	ldr	r2, [r3, #16]
 8003254:	0652      	lsls	r2, r2, #25
 8003256:	d502      	bpl.n	800325e <HAL_TIM_IRQHandler+0x5a>
 8003258:	68da      	ldr	r2, [r3, #12]
 800325a:	0650      	lsls	r0, r2, #25
 800325c:	d461      	bmi.n	8003322 <HAL_TIM_IRQHandler+0x11e>
 800325e:	691a      	ldr	r2, [r3, #16]
 8003260:	0691      	lsls	r1, r2, #26
 8003262:	d502      	bpl.n	800326a <HAL_TIM_IRQHandler+0x66>
 8003264:	68da      	ldr	r2, [r3, #12]
 8003266:	0692      	lsls	r2, r2, #26
 8003268:	d443      	bmi.n	80032f2 <HAL_TIM_IRQHandler+0xee>
 800326a:	bd10      	pop	{r4, pc}
 800326c:	f06f 0210 	mvn.w	r2, #16
 8003270:	611a      	str	r2, [r3, #16]
 8003272:	69db      	ldr	r3, [r3, #28]
 8003274:	2208      	movs	r2, #8
 8003276:	f413 7f40 	tst.w	r3, #768	; 0x300
 800327a:	7722      	strb	r2, [r4, #28]
 800327c:	4620      	mov	r0, r4
 800327e:	d064      	beq.n	800334a <HAL_TIM_IRQHandler+0x146>
 8003280:	f7ff ffba 	bl	80031f8 <HAL_TIM_IC_CaptureCallback>
 8003284:	2200      	movs	r2, #0
 8003286:	6823      	ldr	r3, [r4, #0]
 8003288:	7722      	strb	r2, [r4, #28]
 800328a:	e7d6      	b.n	800323a <HAL_TIM_IRQHandler+0x36>
 800328c:	f06f 0208 	mvn.w	r2, #8
 8003290:	611a      	str	r2, [r3, #16]
 8003292:	69db      	ldr	r3, [r3, #28]
 8003294:	2204      	movs	r2, #4
 8003296:	0799      	lsls	r1, r3, #30
 8003298:	7722      	strb	r2, [r4, #28]
 800329a:	4620      	mov	r0, r4
 800329c:	d152      	bne.n	8003344 <HAL_TIM_IRQHandler+0x140>
 800329e:	f7ff ffa9 	bl	80031f4 <HAL_TIM_OC_DelayElapsedCallback>
 80032a2:	4620      	mov	r0, r4
 80032a4:	f7ff ffaa 	bl	80031fc <HAL_TIM_PWM_PulseFinishedCallback>
 80032a8:	2200      	movs	r2, #0
 80032aa:	6823      	ldr	r3, [r4, #0]
 80032ac:	7722      	strb	r2, [r4, #28]
 80032ae:	e7be      	b.n	800322e <HAL_TIM_IRQHandler+0x2a>
 80032b0:	f06f 0204 	mvn.w	r2, #4
 80032b4:	611a      	str	r2, [r3, #16]
 80032b6:	699b      	ldr	r3, [r3, #24]
 80032b8:	2202      	movs	r2, #2
 80032ba:	f413 7f40 	tst.w	r3, #768	; 0x300
 80032be:	7722      	strb	r2, [r4, #28]
 80032c0:	4620      	mov	r0, r4
 80032c2:	d13c      	bne.n	800333e <HAL_TIM_IRQHandler+0x13a>
 80032c4:	f7ff ff96 	bl	80031f4 <HAL_TIM_OC_DelayElapsedCallback>
 80032c8:	4620      	mov	r0, r4
 80032ca:	f7ff ff97 	bl	80031fc <HAL_TIM_PWM_PulseFinishedCallback>
 80032ce:	2200      	movs	r2, #0
 80032d0:	6823      	ldr	r3, [r4, #0]
 80032d2:	7722      	strb	r2, [r4, #28]
 80032d4:	e7a5      	b.n	8003222 <HAL_TIM_IRQHandler+0x1e>
 80032d6:	f06f 0202 	mvn.w	r2, #2
 80032da:	611a      	str	r2, [r3, #16]
 80032dc:	699b      	ldr	r3, [r3, #24]
 80032de:	2201      	movs	r2, #1
 80032e0:	079b      	lsls	r3, r3, #30
 80032e2:	7702      	strb	r2, [r0, #28]
 80032e4:	d025      	beq.n	8003332 <HAL_TIM_IRQHandler+0x12e>
 80032e6:	f7ff ff87 	bl	80031f8 <HAL_TIM_IC_CaptureCallback>
 80032ea:	2200      	movs	r2, #0
 80032ec:	6823      	ldr	r3, [r4, #0]
 80032ee:	7722      	strb	r2, [r4, #28]
 80032f0:	e791      	b.n	8003216 <HAL_TIM_IRQHandler+0x12>
 80032f2:	f06f 0220 	mvn.w	r2, #32
 80032f6:	4620      	mov	r0, r4
 80032f8:	611a      	str	r2, [r3, #16]
 80032fa:	e8bd 4010 	ldmia.w	sp!, {r4, lr}
 80032fe:	f000 b84d 	b.w	800339c <HAL_TIMEx_CommutCallback>
 8003302:	f06f 0201 	mvn.w	r2, #1
 8003306:	611a      	str	r2, [r3, #16]
 8003308:	4620      	mov	r0, r4
 800330a:	f000 f9dd 	bl	80036c8 <__HAL_TIM_PeriodElapsedCallback_veneer>
 800330e:	6823      	ldr	r3, [r4, #0]
 8003310:	e799      	b.n	8003246 <HAL_TIM_IRQHandler+0x42>
 8003312:	f06f 0280 	mvn.w	r2, #128	; 0x80
 8003316:	611a      	str	r2, [r3, #16]
 8003318:	4620      	mov	r0, r4
 800331a:	f000 f841 	bl	80033a0 <HAL_TIMEx_BreakCallback>
 800331e:	6823      	ldr	r3, [r4, #0]
 8003320:	e797      	b.n	8003252 <HAL_TIM_IRQHandler+0x4e>
 8003322:	f06f 0240 	mvn.w	r2, #64	; 0x40
 8003326:	611a      	str	r2, [r3, #16]
 8003328:	4620      	mov	r0, r4
 800332a:	f7ff ff69 	bl	8003200 <HAL_TIM_TriggerCallback>
 800332e:	6823      	ldr	r3, [r4, #0]
 8003330:	e795      	b.n	800325e <HAL_TIM_IRQHandler+0x5a>
 8003332:	f7ff ff5f 	bl	80031f4 <HAL_TIM_OC_DelayElapsedCallback>
 8003336:	4620      	mov	r0, r4
 8003338:	f7ff ff60 	bl	80031fc <HAL_TIM_PWM_PulseFinishedCallback>
 800333c:	e7d5      	b.n	80032ea <HAL_TIM_IRQHandler+0xe6>
 800333e:	f7ff ff5b 	bl	80031f8 <HAL_TIM_IC_CaptureCallback>
 8003342:	e7c4      	b.n	80032ce <HAL_TIM_IRQHandler+0xca>
 8003344:	f7ff ff58 	bl	80031f8 <HAL_TIM_IC_CaptureCallback>
 8003348:	e7ae      	b.n	80032a8 <HAL_TIM_IRQHandler+0xa4>
 800334a:	f7ff ff53 	bl	80031f4 <HAL_TIM_OC_DelayElapsedCallback>
 800334e:	4620      	mov	r0, r4
 8003350:	f7ff ff54 	bl	80031fc <HAL_TIM_PWM_PulseFinishedCallback>
 8003354:	e796      	b.n	8003284 <HAL_TIM_IRQHandler+0x80>
 8003356:	bf00      	nop

08003358 <HAL_TIMEx_MasterConfigSynchronization>:
 8003358:	f890 203c 	ldrb.w	r2, [r0, #60]	; 0x3c
 800335c:	2a01      	cmp	r2, #1
 800335e:	d01a      	beq.n	8003396 <HAL_TIMEx_MasterConfigSynchronization+0x3e>
 8003360:	b470      	push	{r4, r5, r6}
 8003362:	2202      	movs	r2, #2
 8003364:	6804      	ldr	r4, [r0, #0]
 8003366:	f880 203d 	strb.w	r2, [r0, #61]	; 0x3d
 800336a:	e9d1 6500 	ldrd	r6, r5, [r1]
 800336e:	4603      	mov	r3, r0
 8003370:	6860      	ldr	r0, [r4, #4]
 8003372:	68a2      	ldr	r2, [r4, #8]
 8003374:	f020 0170 	bic.w	r1, r0, #112	; 0x70
 8003378:	f022 0280 	bic.w	r2, r2, #128	; 0x80
 800337c:	4331      	orrs	r1, r6
 800337e:	432a      	orrs	r2, r5
 8003380:	2601      	movs	r6, #1
 8003382:	2500      	movs	r5, #0
 8003384:	6061      	str	r1, [r4, #4]
 8003386:	4628      	mov	r0, r5
 8003388:	60a2      	str	r2, [r4, #8]
 800338a:	f883 603d 	strb.w	r6, [r3, #61]	; 0x3d
 800338e:	f883 503c 	strb.w	r5, [r3, #60]	; 0x3c
 8003392:	bc70      	pop	{r4, r5, r6}
 8003394:	4770      	bx	lr
 8003396:	2002      	movs	r0, #2
 8003398:	4770      	bx	lr
 800339a:	bf00      	nop

0800339c <HAL_TIMEx_CommutCallback>:
 800339c:	4770      	bx	lr
 800339e:	bf00      	nop

080033a0 <HAL_TIMEx_BreakCallback>:
 80033a0:	4770      	bx	lr
 80033a2:	bf00      	nop

080033a4 <_Znaj>:
 80033a4:	f000 b802 	b.w	80033ac <_Znwj>

080033a8 <_ZdlPvj>:
 80033a8:	f000 b81a 	b.w	80033e0 <_ZdlPv>

080033ac <_Znwj>:
 80033ac:	b510      	push	{r4, lr}
 80033ae:	2800      	cmp	r0, #0
 80033b0:	bf14      	ite	ne
 80033b2:	4604      	movne	r4, r0
 80033b4:	2401      	moveq	r4, #1
 80033b6:	4620      	mov	r0, r4
 80033b8:	f000 f848 	bl	800344c <malloc>
 80033bc:	b930      	cbnz	r0, 80033cc <_Znwj+0x20>
 80033be:	f000 f807 	bl	80033d0 <_ZSt15get_new_handlerv>
 80033c2:	b908      	cbnz	r0, 80033c8 <_Znwj+0x1c>
 80033c4:	f000 f811 	bl	80033ea <abort>
 80033c8:	4780      	blx	r0
 80033ca:	e7f4      	b.n	80033b6 <_Znwj+0xa>
 80033cc:	bd10      	pop	{r4, pc}
	...

080033d0 <_ZSt15get_new_handlerv>:
 80033d0:	4b02      	ldr	r3, [pc, #8]	; (80033dc <_ZSt15get_new_handlerv+0xc>)
 80033d2:	6818      	ldr	r0, [r3, #0]
 80033d4:	f3bf 8f5b 	dmb	ish
 80033d8:	4770      	bx	lr
 80033da:	bf00      	nop
 80033dc:	20000728 	.word	0x20000728

080033e0 <_ZdlPv>:
 80033e0:	f000 b83c 	b.w	800345c <free>

080033e4 <_ZSt17__throw_bad_allocv>:
 80033e4:	b508      	push	{r3, lr}
 80033e6:	f000 f800 	bl	80033ea <abort>

080033ea <abort>:
 80033ea:	b508      	push	{r3, lr}
 80033ec:	2006      	movs	r0, #6
 80033ee:	f000 f937 	bl	8003660 <raise>
 80033f2:	2001      	movs	r0, #1
 80033f4:	f7fe fea8 	bl	8002148 <_exit>

080033f8 <__errno>:
 80033f8:	4b01      	ldr	r3, [pc, #4]	; (8003400 <__errno+0x8>)
 80033fa:	6818      	ldr	r0, [r3, #0]
 80033fc:	4770      	bx	lr
 80033fe:	bf00      	nop
 8003400:	20000684 	.word	0x20000684

08003404 <__libc_init_array>:
 8003404:	b570      	push	{r4, r5, r6, lr}
 8003406:	4e0d      	ldr	r6, [pc, #52]	; (800343c <__libc_init_array+0x38>)
 8003408:	4c0d      	ldr	r4, [pc, #52]	; (8003440 <__libc_init_array+0x3c>)
 800340a:	1ba4      	subs	r4, r4, r6
 800340c:	10a4      	asrs	r4, r4, #2
 800340e:	2500      	movs	r5, #0
 8003410:	42a5      	cmp	r5, r4
 8003412:	d109      	bne.n	8003428 <__libc_init_array+0x24>
 8003414:	4e0b      	ldr	r6, [pc, #44]	; (8003444 <__libc_init_array+0x40>)
 8003416:	4c0c      	ldr	r4, [pc, #48]	; (8003448 <__libc_init_array+0x44>)
 8003418:	f000 f940 	bl	800369c <_init>
 800341c:	1ba4      	subs	r4, r4, r6
 800341e:	10a4      	asrs	r4, r4, #2
 8003420:	2500      	movs	r5, #0
 8003422:	42a5      	cmp	r5, r4
 8003424:	d105      	bne.n	8003432 <__libc_init_array+0x2e>
 8003426:	bd70      	pop	{r4, r5, r6, pc}
 8003428:	f856 3025 	ldr.w	r3, [r6, r5, lsl #2]
 800342c:	4798      	blx	r3
 800342e:	3501      	adds	r5, #1
 8003430:	e7ee      	b.n	8003410 <__libc_init_array+0xc>
 8003432:	f856 3025 	ldr.w	r3, [r6, r5, lsl #2]
 8003436:	4798      	blx	r3
 8003438:	3501      	adds	r5, #1
 800343a:	e7f2      	b.n	8003422 <__libc_init_array+0x1e>
 800343c:	08003d98 	.word	0x08003d98
 8003440:	08003d98 	.word	0x08003d98
 8003444:	08003d98 	.word	0x08003d98
 8003448:	08003da0 	.word	0x08003da0

0800344c <malloc>:
 800344c:	4b02      	ldr	r3, [pc, #8]	; (8003458 <malloc+0xc>)
 800344e:	4601      	mov	r1, r0
 8003450:	6818      	ldr	r0, [r3, #0]
 8003452:	f000 b873 	b.w	800353c <_malloc_r>
 8003456:	bf00      	nop
 8003458:	20000684 	.word	0x20000684

0800345c <free>:
 800345c:	4b02      	ldr	r3, [pc, #8]	; (8003468 <free+0xc>)
 800345e:	4601      	mov	r1, r0
 8003460:	6818      	ldr	r0, [r3, #0]
 8003462:	f000 b81d 	b.w	80034a0 <_free_r>
 8003466:	bf00      	nop
 8003468:	20000684 	.word	0x20000684

0800346c <memmove>:
 800346c:	4288      	cmp	r0, r1
 800346e:	b510      	push	{r4, lr}
 8003470:	eb01 0302 	add.w	r3, r1, r2
 8003474:	d807      	bhi.n	8003486 <memmove+0x1a>
 8003476:	1e42      	subs	r2, r0, #1
 8003478:	4299      	cmp	r1, r3
 800347a:	d00a      	beq.n	8003492 <memmove+0x26>
 800347c:	f811 4b01 	ldrb.w	r4, [r1], #1
 8003480:	f802 4f01 	strb.w	r4, [r2, #1]!
 8003484:	e7f8      	b.n	8003478 <memmove+0xc>
 8003486:	4283      	cmp	r3, r0
 8003488:	d9f5      	bls.n	8003476 <memmove+0xa>
 800348a:	1881      	adds	r1, r0, r2
 800348c:	1ad2      	subs	r2, r2, r3
 800348e:	42d3      	cmn	r3, r2
 8003490:	d100      	bne.n	8003494 <memmove+0x28>
 8003492:	bd10      	pop	{r4, pc}
 8003494:	f813 4d01 	ldrb.w	r4, [r3, #-1]!
 8003498:	f801 4d01 	strb.w	r4, [r1, #-1]!
 800349c:	e7f7      	b.n	800348e <memmove+0x22>
	...

080034a0 <_free_r>:
 80034a0:	b538      	push	{r3, r4, r5, lr}
 80034a2:	4605      	mov	r5, r0
 80034a4:	2900      	cmp	r1, #0
 80034a6:	d045      	beq.n	8003534 <_free_r+0x94>
 80034a8:	f851 3c04 	ldr.w	r3, [r1, #-4]
 80034ac:	1f0c      	subs	r4, r1, #4
 80034ae:	2b00      	cmp	r3, #0
 80034b0:	bfb8      	it	lt
 80034b2:	18e4      	addlt	r4, r4, r3
 80034b4:	f000 f8f0 	bl	8003698 <__malloc_lock>
 80034b8:	4a1f      	ldr	r2, [pc, #124]	; (8003538 <_free_r+0x98>)
 80034ba:	6813      	ldr	r3, [r2, #0]
 80034bc:	4610      	mov	r0, r2
 80034be:	b933      	cbnz	r3, 80034ce <_free_r+0x2e>
 80034c0:	6063      	str	r3, [r4, #4]
 80034c2:	6014      	str	r4, [r2, #0]
 80034c4:	4628      	mov	r0, r5
 80034c6:	e8bd 4038 	ldmia.w	sp!, {r3, r4, r5, lr}
 80034ca:	f000 b8e6 	b.w	800369a <__malloc_unlock>
 80034ce:	42a3      	cmp	r3, r4
 80034d0:	d90c      	bls.n	80034ec <_free_r+0x4c>
 80034d2:	6821      	ldr	r1, [r4, #0]
 80034d4:	1862      	adds	r2, r4, r1
 80034d6:	4293      	cmp	r3, r2
 80034d8:	bf04      	itt	eq
 80034da:	681a      	ldreq	r2, [r3, #0]
 80034dc:	685b      	ldreq	r3, [r3, #4]
 80034de:	6063      	str	r3, [r4, #4]
 80034e0:	bf04      	itt	eq
 80034e2:	1852      	addeq	r2, r2, r1
 80034e4:	6022      	streq	r2, [r4, #0]
 80034e6:	6004      	str	r4, [r0, #0]
 80034e8:	e7ec      	b.n	80034c4 <_free_r+0x24>
 80034ea:	4613      	mov	r3, r2
 80034ec:	685a      	ldr	r2, [r3, #4]
 80034ee:	b10a      	cbz	r2, 80034f4 <_free_r+0x54>
 80034f0:	42a2      	cmp	r2, r4
 80034f2:	d9fa      	bls.n	80034ea <_free_r+0x4a>
 80034f4:	6819      	ldr	r1, [r3, #0]
 80034f6:	1858      	adds	r0, r3, r1
 80034f8:	42a0      	cmp	r0, r4
 80034fa:	d10b      	bne.n	8003514 <_free_r+0x74>
 80034fc:	6820      	ldr	r0, [r4, #0]
 80034fe:	4401      	add	r1, r0
 8003500:	1858      	adds	r0, r3, r1
 8003502:	4282      	cmp	r2, r0
 8003504:	6019      	str	r1, [r3, #0]
 8003506:	d1dd      	bne.n	80034c4 <_free_r+0x24>
 8003508:	6810      	ldr	r0, [r2, #0]
 800350a:	6852      	ldr	r2, [r2, #4]
 800350c:	605a      	str	r2, [r3, #4]
 800350e:	4401      	add	r1, r0
 8003510:	6019      	str	r1, [r3, #0]
 8003512:	e7d7      	b.n	80034c4 <_free_r+0x24>
 8003514:	d902      	bls.n	800351c <_free_r+0x7c>
 8003516:	230c      	movs	r3, #12
 8003518:	602b      	str	r3, [r5, #0]
 800351a:	e7d3      	b.n	80034c4 <_free_r+0x24>
 800351c:	6820      	ldr	r0, [r4, #0]
 800351e:	1821      	adds	r1, r4, r0
 8003520:	428a      	cmp	r2, r1
 8003522:	bf04      	itt	eq
 8003524:	6811      	ldreq	r1, [r2, #0]
 8003526:	6852      	ldreq	r2, [r2, #4]
 8003528:	6062      	str	r2, [r4, #4]
 800352a:	bf04      	itt	eq
 800352c:	1809      	addeq	r1, r1, r0
 800352e:	6021      	streq	r1, [r4, #0]
 8003530:	605c      	str	r4, [r3, #4]
 8003532:	e7c7      	b.n	80034c4 <_free_r+0x24>
 8003534:	bd38      	pop	{r3, r4, r5, pc}
 8003536:	bf00      	nop
 8003538:	2000072c 	.word	0x2000072c

0800353c <_malloc_r>:
 800353c:	b570      	push	{r4, r5, r6, lr}
 800353e:	1ccd      	adds	r5, r1, #3
 8003540:	f025 0503 	bic.w	r5, r5, #3
 8003544:	3508      	adds	r5, #8
 8003546:	2d0c      	cmp	r5, #12
 8003548:	bf38      	it	cc
 800354a:	250c      	movcc	r5, #12
 800354c:	2d00      	cmp	r5, #0
 800354e:	4606      	mov	r6, r0
 8003550:	db01      	blt.n	8003556 <_malloc_r+0x1a>
 8003552:	42a9      	cmp	r1, r5
 8003554:	d903      	bls.n	800355e <_malloc_r+0x22>
 8003556:	230c      	movs	r3, #12
 8003558:	6033      	str	r3, [r6, #0]
 800355a:	2000      	movs	r0, #0
 800355c:	bd70      	pop	{r4, r5, r6, pc}
 800355e:	f000 f89b 	bl	8003698 <__malloc_lock>
 8003562:	4a21      	ldr	r2, [pc, #132]	; (80035e8 <_malloc_r+0xac>)
 8003564:	6814      	ldr	r4, [r2, #0]
 8003566:	4621      	mov	r1, r4
 8003568:	b991      	cbnz	r1, 8003590 <_malloc_r+0x54>
 800356a:	4c20      	ldr	r4, [pc, #128]	; (80035ec <_malloc_r+0xb0>)
 800356c:	6823      	ldr	r3, [r4, #0]
 800356e:	b91b      	cbnz	r3, 8003578 <_malloc_r+0x3c>
 8003570:	4630      	mov	r0, r6
 8003572:	f000 f83d 	bl	80035f0 <_sbrk_r>
 8003576:	6020      	str	r0, [r4, #0]
 8003578:	4629      	mov	r1, r5
 800357a:	4630      	mov	r0, r6
 800357c:	f000 f838 	bl	80035f0 <_sbrk_r>
 8003580:	1c43      	adds	r3, r0, #1
 8003582:	d124      	bne.n	80035ce <_malloc_r+0x92>
 8003584:	230c      	movs	r3, #12
 8003586:	6033      	str	r3, [r6, #0]
 8003588:	4630      	mov	r0, r6
 800358a:	f000 f886 	bl	800369a <__malloc_unlock>
 800358e:	e7e4      	b.n	800355a <_malloc_r+0x1e>
 8003590:	680b      	ldr	r3, [r1, #0]
 8003592:	1b5b      	subs	r3, r3, r5
 8003594:	d418      	bmi.n	80035c8 <_malloc_r+0x8c>
 8003596:	2b0b      	cmp	r3, #11
 8003598:	d90f      	bls.n	80035ba <_malloc_r+0x7e>
 800359a:	600b      	str	r3, [r1, #0]
 800359c:	50cd      	str	r5, [r1, r3]
 800359e:	18cc      	adds	r4, r1, r3
 80035a0:	4630      	mov	r0, r6
 80035a2:	f000 f87a 	bl	800369a <__malloc_unlock>
 80035a6:	f104 000b 	add.w	r0, r4, #11
 80035aa:	1d23      	adds	r3, r4, #4
 80035ac:	f020 0007 	bic.w	r0, r0, #7
 80035b0:	1ac3      	subs	r3, r0, r3
 80035b2:	d0d3      	beq.n	800355c <_malloc_r+0x20>
 80035b4:	425a      	negs	r2, r3
 80035b6:	50e2      	str	r2, [r4, r3]
 80035b8:	e7d0      	b.n	800355c <_malloc_r+0x20>
 80035ba:	428c      	cmp	r4, r1
 80035bc:	684b      	ldr	r3, [r1, #4]
 80035be:	bf16      	itet	ne
 80035c0:	6063      	strne	r3, [r4, #4]
 80035c2:	6013      	streq	r3, [r2, #0]
 80035c4:	460c      	movne	r4, r1
 80035c6:	e7eb      	b.n	80035a0 <_malloc_r+0x64>
 80035c8:	460c      	mov	r4, r1
 80035ca:	6849      	ldr	r1, [r1, #4]
 80035cc:	e7cc      	b.n	8003568 <_malloc_r+0x2c>
 80035ce:	1cc4      	adds	r4, r0, #3
 80035d0:	f024 0403 	bic.w	r4, r4, #3
 80035d4:	42a0      	cmp	r0, r4
 80035d6:	d005      	beq.n	80035e4 <_malloc_r+0xa8>
 80035d8:	1a21      	subs	r1, r4, r0
 80035da:	4630      	mov	r0, r6
 80035dc:	f000 f808 	bl	80035f0 <_sbrk_r>
 80035e0:	3001      	adds	r0, #1
 80035e2:	d0cf      	beq.n	8003584 <_malloc_r+0x48>
 80035e4:	6025      	str	r5, [r4, #0]
 80035e6:	e7db      	b.n	80035a0 <_malloc_r+0x64>
 80035e8:	2000072c 	.word	0x2000072c
 80035ec:	20000730 	.word	0x20000730

080035f0 <_sbrk_r>:
 80035f0:	b538      	push	{r3, r4, r5, lr}
 80035f2:	4c06      	ldr	r4, [pc, #24]	; (800360c <_sbrk_r+0x1c>)
 80035f4:	2300      	movs	r3, #0
 80035f6:	4605      	mov	r5, r0
 80035f8:	4608      	mov	r0, r1
 80035fa:	6023      	str	r3, [r4, #0]
 80035fc:	f7fe fdaa 	bl	8002154 <_sbrk>
 8003600:	1c43      	adds	r3, r0, #1
 8003602:	d102      	bne.n	800360a <_sbrk_r+0x1a>
 8003604:	6823      	ldr	r3, [r4, #0]
 8003606:	b103      	cbz	r3, 800360a <_sbrk_r+0x1a>
 8003608:	602b      	str	r3, [r5, #0]
 800360a:	bd38      	pop	{r3, r4, r5, pc}
 800360c:	20000cb0 	.word	0x20000cb0

08003610 <_raise_r>:
 8003610:	291f      	cmp	r1, #31
 8003612:	b538      	push	{r3, r4, r5, lr}
 8003614:	4604      	mov	r4, r0
 8003616:	460d      	mov	r5, r1
 8003618:	d904      	bls.n	8003624 <_raise_r+0x14>
 800361a:	2316      	movs	r3, #22
 800361c:	6003      	str	r3, [r0, #0]
 800361e:	f04f 30ff 	mov.w	r0, #4294967295
 8003622:	bd38      	pop	{r3, r4, r5, pc}
 8003624:	6c42      	ldr	r2, [r0, #68]	; 0x44
 8003626:	b112      	cbz	r2, 800362e <_raise_r+0x1e>
 8003628:	f852 3021 	ldr.w	r3, [r2, r1, lsl #2]
 800362c:	b94b      	cbnz	r3, 8003642 <_raise_r+0x32>
 800362e:	4620      	mov	r0, r4
 8003630:	f000 f830 	bl	8003694 <_getpid_r>
 8003634:	462a      	mov	r2, r5
 8003636:	4601      	mov	r1, r0
 8003638:	4620      	mov	r0, r4
 800363a:	e8bd 4038 	ldmia.w	sp!, {r3, r4, r5, lr}
 800363e:	f000 b817 	b.w	8003670 <_kill_r>
 8003642:	2b01      	cmp	r3, #1
 8003644:	d00a      	beq.n	800365c <_raise_r+0x4c>
 8003646:	1c59      	adds	r1, r3, #1
 8003648:	d103      	bne.n	8003652 <_raise_r+0x42>
 800364a:	2316      	movs	r3, #22
 800364c:	6003      	str	r3, [r0, #0]
 800364e:	2001      	movs	r0, #1
 8003650:	e7e7      	b.n	8003622 <_raise_r+0x12>
 8003652:	2400      	movs	r4, #0
 8003654:	f842 4025 	str.w	r4, [r2, r5, lsl #2]
 8003658:	4628      	mov	r0, r5
 800365a:	4798      	blx	r3
 800365c:	2000      	movs	r0, #0
 800365e:	e7e0      	b.n	8003622 <_raise_r+0x12>

08003660 <raise>:
 8003660:	4b02      	ldr	r3, [pc, #8]	; (800366c <raise+0xc>)
 8003662:	4601      	mov	r1, r0
 8003664:	6818      	ldr	r0, [r3, #0]
 8003666:	f7ff bfd3 	b.w	8003610 <_raise_r>
 800366a:	bf00      	nop
 800366c:	20000684 	.word	0x20000684

08003670 <_kill_r>:
 8003670:	b538      	push	{r3, r4, r5, lr}
 8003672:	4c07      	ldr	r4, [pc, #28]	; (8003690 <_kill_r+0x20>)
 8003674:	2300      	movs	r3, #0
 8003676:	4605      	mov	r5, r0
 8003678:	4608      	mov	r0, r1
 800367a:	4611      	mov	r1, r2
 800367c:	6023      	str	r3, [r4, #0]
 800367e:	f7fe fd5b 	bl	8002138 <_kill>
 8003682:	1c43      	adds	r3, r0, #1
 8003684:	d102      	bne.n	800368c <_kill_r+0x1c>
 8003686:	6823      	ldr	r3, [r4, #0]
 8003688:	b103      	cbz	r3, 800368c <_kill_r+0x1c>
 800368a:	602b      	str	r3, [r5, #0]
 800368c:	bd38      	pop	{r3, r4, r5, pc}
 800368e:	bf00      	nop
 8003690:	20000cb0 	.word	0x20000cb0

08003694 <_getpid_r>:
 8003694:	f7fe bd4e 	b.w	8002134 <_getpid>

08003698 <__malloc_lock>:
 8003698:	4770      	bx	lr

0800369a <__malloc_unlock>:
 800369a:	4770      	bx	lr

0800369c <_init>:
 800369c:	b5f8      	push	{r3, r4, r5, r6, r7, lr}
 800369e:	bf00      	nop
 80036a0:	bcf8      	pop	{r3, r4, r5, r6, r7}
 80036a2:	bc08      	pop	{r3}
 80036a4:	469e      	mov	lr, r3
 80036a6:	4770      	bx	lr

080036a8 <_fini>:
 80036a8:	b5f8      	push	{r3, r4, r5, r6, r7, lr}
 80036aa:	bf00      	nop
 80036ac:	bcf8      	pop	{r3, r4, r5, r6, r7}
 80036ae:	bc08      	pop	{r3}
 80036b0:	469e      	mov	lr, r3
 80036b2:	4770      	bx	lr
 80036b4:	0000      	movs	r0, r0
	...

080036b8 <___ZN3PID17CalculateFeedbackEff_veneer>:
 80036b8:	f85f f000 	ldr.w	pc, [pc]	; 80036bc <___ZN3PID17CalculateFeedbackEff_veneer+0x4>
 80036bc:	20000511 	.word	0x20000511

080036c0 <___ZN11ADC_Channel8GetFloatEv_veneer>:
 80036c0:	f85f f000 	ldr.w	pc, [pc]	; 80036c4 <___ZN11ADC_Channel8GetFloatEv_veneer+0x4>
 80036c4:	2000019d 	.word	0x2000019d

080036c8 <__HAL_TIM_PeriodElapsedCallback_veneer>:
 80036c8:	f85f f000 	ldr.w	pc, [pc]	; 80036cc <__HAL_TIM_PeriodElapsedCallback_veneer+0x4>
 80036cc:	200001ad 	.word	0x200001ad

080036d0 <___ZN7DAC_Dev8WriteIntEl_veneer>:
 80036d0:	f85f f000 	ldr.w	pc, [pc]	; 80036d4 <___ZN7DAC_Dev8WriteIntEl_veneer+0x4>
 80036d4:	20000201 	.word	0x20000201

080036d8 <___ZN12Oscilloscope5InputEff_veneer>:
 80036d8:	f85f f000 	ldr.w	pc, [pc]	; 80036dc <___ZN12Oscilloscope5InputEff_veneer+0x4>
 80036dc:	20000461 	.word	0x20000461

080036e0 <___ZN7DAC_Dev10WriteFloatEf_veneer>:
 80036e0:	f85f f000 	ldr.w	pc, [pc]	; 80036e4 <___ZN7DAC_Dev10WriteFloatEf_veneer+0x4>
 80036e4:	20000255 	.word	0x20000255

080036e8 <___ZN7ADC_Dev4ReadEv_veneer>:
 80036e8:	f85f f000 	ldr.w	pc, [pc]	; 80036ec <___ZN7ADC_Dev4ReadEv_veneer+0x4>
 80036ec:	20000001 	.word	0x20000001

080036f0 <___ZN11RaspberryPi8TransferEPhS0_m_veneer>:
 80036f0:	f85f f000 	ldr.w	pc, [pc]	; 80036f4 <___ZN11RaspberryPi8TransferEPhS0_m_veneer+0x4>
 80036f4:	20000585 	.word	0x20000585

080036f8 <___ZN15SPI_DMA_Handler8TransferEPhS0_t_veneer>:
 80036f8:	f85f f000 	ldr.w	pc, [pc]	; 80036fc <___ZN15SPI_DMA_Handler8TransferEPhS0_t_veneer+0x4>
 80036fc:	20000331 	.word	0x20000331

Disassembly of section .sram_func:

20000000 <_ZN7ADC_Dev4ReadEv>:
20000000:	7c03      	ldrb	r3, [r0, #16]
20000002:	b1f3      	cbz	r3, 20000042 <_ZN7ADC_Dev4ReadEv+0x42>
20000004:	b410      	push	{r4}
20000006:	6804      	ldr	r4, [r0, #0]
20000008:	8881      	ldrh	r1, [r0, #4]
2000000a:	b083      	sub	sp, #12
2000000c:	2300      	movs	r3, #0
2000000e:	7403      	strb	r3, [r0, #16]
20000010:	61a1      	str	r1, [r4, #24]
20000012:	9301      	str	r3, [sp, #4]
20000014:	9b01      	ldr	r3, [sp, #4]
20000016:	1e5a      	subs	r2, r3, #1
20000018:	9201      	str	r2, [sp, #4]
2000001a:	2b00      	cmp	r3, #0
2000001c:	d1fa      	bne.n	20000014 <_ZN7ADC_Dev4ReadEv+0x14>
2000001e:	0409      	lsls	r1, r1, #16
20000020:	2305      	movs	r3, #5
20000022:	61a1      	str	r1, [r4, #24]
20000024:	9301      	str	r3, [sp, #4]
20000026:	9b01      	ldr	r3, [sp, #4]
20000028:	1e5a      	subs	r2, r3, #1
2000002a:	9201      	str	r2, [sp, #4]
2000002c:	2b00      	cmp	r3, #0
2000002e:	d1fa      	bne.n	20000026 <_ZN7ADC_Dev4ReadEv+0x26>
20000030:	e9d0 1202 	ldrd	r1, r2, [r0, #8]
20000034:	7e03      	ldrb	r3, [r0, #24]
20000036:	6940      	ldr	r0, [r0, #20]
20000038:	b003      	add	sp, #12
2000003a:	f85d 4b04 	ldr.w	r4, [sp], #4
2000003e:	f000 b977 	b.w	20000330 <_ZN15SPI_DMA_Handler8TransferEPhS0_t>
20000042:	4770      	bx	lr

20000044 <_ZN7ADC_Dev8CallbackEv>:
20000044:	b538      	push	{r3, r4, r5, lr}
20000046:	4604      	mov	r4, r0
20000048:	6940      	ldr	r0, [r0, #20]
2000004a:	f000 f991 	bl	20000370 <_ZN15SPI_DMA_Handler8CallbackEv>
2000004e:	68a1      	ldr	r1, [r4, #8]
20000050:	6a23      	ldr	r3, [r4, #32]
20000052:	780d      	ldrb	r5, [r1, #0]
20000054:	784a      	ldrb	r2, [r1, #1]
20000056:	7a18      	ldrb	r0, [r3, #8]
20000058:	eb02 2205 	add.w	r2, r2, r5, lsl #8
2000005c:	b212      	sxth	r2, r2
2000005e:	815a      	strh	r2, [r3, #10]
20000060:	895a      	ldrh	r2, [r3, #10]
20000062:	2800      	cmp	r0, #0
20000064:	d056      	beq.n	20000114 <_ZN7ADC_Dev8CallbackEv+0xd0>
20000066:	b212      	sxth	r2, r2
20000068:	ee07 2a90 	vmov	s15, r2
2000006c:	ed93 7a01 	vldr	s14, [r3, #4]
20000070:	eef8 7ae7 	vcvt.f32.s32	s15, s15
20000074:	ee67 7a87 	vmul.f32	s15, s15, s14
20000078:	7c5a      	ldrb	r2, [r3, #17]
2000007a:	edc3 7a03 	vstr	s15, [r3, #12]
2000007e:	b1a2      	cbz	r2, 200000aa <_ZN7ADC_Dev8CallbackEv+0x66>
20000080:	7c9a      	ldrb	r2, [r3, #18]
20000082:	2a00      	cmp	r2, #0
20000084:	d154      	bne.n	20000130 <_ZN7ADC_Dev8CallbackEv+0xec>
20000086:	ed93 7a05 	vldr	s14, [r3, #20]
2000008a:	ed93 6a03 	vldr	s12, [r3, #12]
2000008e:	edd3 6a06 	vldr	s13, [r3, #24]
20000092:	eef7 7a00 	vmov.f32	s15, #112	; 0x3f800000  1.0
20000096:	ee77 7ac7 	vsub.f32	s15, s15, s14
2000009a:	ee67 7a86 	vmul.f32	s15, s15, s12
2000009e:	eee7 7a26 	vfma.f32	s15, s14, s13
200000a2:	edc3 7a03 	vstr	s15, [r3, #12]
200000a6:	68da      	ldr	r2, [r3, #12]
200000a8:	619a      	str	r2, [r3, #24]
200000aa:	78c8      	ldrb	r0, [r1, #3]
200000ac:	790a      	ldrb	r2, [r1, #4]
200000ae:	69e3      	ldr	r3, [r4, #28]
200000b0:	eb02 2200 	add.w	r2, r2, r0, lsl #8
200000b4:	b212      	sxth	r2, r2
200000b6:	7a19      	ldrb	r1, [r3, #8]
200000b8:	815a      	strh	r2, [r3, #10]
200000ba:	ed93 7a01 	vldr	s14, [r3, #4]
200000be:	895a      	ldrh	r2, [r3, #10]
200000c0:	b309      	cbz	r1, 20000106 <_ZN7ADC_Dev8CallbackEv+0xc2>
200000c2:	b212      	sxth	r2, r2
200000c4:	ee07 2a90 	vmov	s15, r2
200000c8:	eef8 7ae7 	vcvt.f32.s32	s15, s15
200000cc:	ee67 7a87 	vmul.f32	s15, s15, s14
200000d0:	7c5a      	ldrb	r2, [r3, #17]
200000d2:	edc3 7a03 	vstr	s15, [r3, #12]
200000d6:	b19a      	cbz	r2, 20000100 <_ZN7ADC_Dev8CallbackEv+0xbc>
200000d8:	7c9a      	ldrb	r2, [r3, #18]
200000da:	bb22      	cbnz	r2, 20000126 <_ZN7ADC_Dev8CallbackEv+0xe2>
200000dc:	ed93 7a05 	vldr	s14, [r3, #20]
200000e0:	ed93 6a03 	vldr	s12, [r3, #12]
200000e4:	edd3 6a06 	vldr	s13, [r3, #24]
200000e8:	eef7 7a00 	vmov.f32	s15, #112	; 0x3f800000  1.0
200000ec:	ee77 7ac7 	vsub.f32	s15, s15, s14
200000f0:	ee67 7a86 	vmul.f32	s15, s15, s12
200000f4:	eee7 7a26 	vfma.f32	s15, s14, s13
200000f8:	edc3 7a03 	vstr	s15, [r3, #12]
200000fc:	68da      	ldr	r2, [r3, #12]
200000fe:	619a      	str	r2, [r3, #24]
20000100:	2301      	movs	r3, #1
20000102:	7423      	strb	r3, [r4, #16]
20000104:	bd38      	pop	{r3, r4, r5, pc}
20000106:	ee07 2a90 	vmov	s15, r2
2000010a:	eef8 7ae7 	vcvt.f32.s32	s15, s15
2000010e:	ee67 7a87 	vmul.f32	s15, s15, s14
20000112:	e7dd      	b.n	200000d0 <_ZN7ADC_Dev8CallbackEv+0x8c>
20000114:	ee07 2a90 	vmov	s15, r2
20000118:	ed93 7a01 	vldr	s14, [r3, #4]
2000011c:	eef8 7ae7 	vcvt.f32.s32	s15, s15
20000120:	ee67 7a87 	vmul.f32	s15, s15, s14
20000124:	e7a8      	b.n	20000078 <_ZN7ADC_Dev8CallbackEv+0x34>
20000126:	2200      	movs	r2, #0
20000128:	749a      	strb	r2, [r3, #18]
2000012a:	2301      	movs	r3, #1
2000012c:	7423      	strb	r3, [r4, #16]
2000012e:	bd38      	pop	{r3, r4, r5, pc}
20000130:	2200      	movs	r2, #0
20000132:	749a      	strb	r2, [r3, #18]
20000134:	e7b9      	b.n	200000aa <_ZN7ADC_Dev8CallbackEv+0x66>
20000136:	bf00      	nop

20000138 <_ZN11ADC_Channel8SetInputEs>:
20000138:	7a03      	ldrb	r3, [r0, #8]
2000013a:	8141      	strh	r1, [r0, #10]
2000013c:	ed90 7a01 	vldr	s14, [r0, #4]
20000140:	b303      	cbz	r3, 20000184 <_ZN11ADC_Channel8SetInputEs+0x4c>
20000142:	8943      	ldrh	r3, [r0, #10]
20000144:	b21b      	sxth	r3, r3
20000146:	ee07 3a90 	vmov	s15, r3
2000014a:	eef8 7ae7 	vcvt.f32.s32	s15, s15
2000014e:	ee67 7a87 	vmul.f32	s15, s15, s14
20000152:	7c43      	ldrb	r3, [r0, #17]
20000154:	edc0 7a03 	vstr	s15, [r0, #12]
20000158:	b19b      	cbz	r3, 20000182 <_ZN11ADC_Channel8SetInputEs+0x4a>
2000015a:	7c83      	ldrb	r3, [r0, #18]
2000015c:	b9d3      	cbnz	r3, 20000194 <_ZN11ADC_Channel8SetInputEs+0x5c>
2000015e:	ed90 7a05 	vldr	s14, [r0, #20]
20000162:	ed90 6a03 	vldr	s12, [r0, #12]
20000166:	edd0 6a06 	vldr	s13, [r0, #24]
2000016a:	eef7 7a00 	vmov.f32	s15, #112	; 0x3f800000  1.0
2000016e:	ee77 7ac7 	vsub.f32	s15, s15, s14
20000172:	ee67 7a86 	vmul.f32	s15, s15, s12
20000176:	eee7 7a26 	vfma.f32	s15, s14, s13
2000017a:	edc0 7a03 	vstr	s15, [r0, #12]
2000017e:	68c3      	ldr	r3, [r0, #12]
20000180:	6183      	str	r3, [r0, #24]
20000182:	4770      	bx	lr
20000184:	8943      	ldrh	r3, [r0, #10]
20000186:	ee07 3a90 	vmov	s15, r3
2000018a:	eef8 7ae7 	vcvt.f32.s32	s15, s15
2000018e:	ee67 7a87 	vmul.f32	s15, s15, s14
20000192:	e7de      	b.n	20000152 <_ZN11ADC_Channel8SetInputEs+0x1a>
20000194:	2300      	movs	r3, #0
20000196:	7483      	strb	r3, [r0, #18]
20000198:	4770      	bx	lr
2000019a:	bf00      	nop

2000019c <_ZN11ADC_Channel8GetFloatEv>:
2000019c:	ed90 0a03 	vldr	s0, [r0, #12]
200001a0:	4770      	bx	lr
200001a2:	bf00      	nop

200001a4 <_ZN11ADC_Channel6GetIntEv>:
200001a4:	8940      	ldrh	r0, [r0, #10]
200001a6:	b200      	sxth	r0, r0
200001a8:	4770      	bx	lr
200001aa:	bf00      	nop

200001ac <HAL_TIM_PeriodElapsedCallback>:
200001ac:	4770      	bx	lr
200001ae:	bf00      	nop

200001b0 <DMA2_Stream4_IRQHandler>:
200001b0:	4b01      	ldr	r3, [pc, #4]	; (200001b8 <DMA2_Stream4_IRQHandler+0x8>)
200001b2:	6818      	ldr	r0, [r3, #0]
200001b4:	f000 b842 	b.w	2000023c <_ZN7DAC_Dev8CallbackEv>
200001b8:	20000710 	.word	0x20000710

200001bc <DMA2_Stream5_IRQHandler>:
200001bc:	4b01      	ldr	r3, [pc, #4]	; (200001c4 <DMA2_Stream5_IRQHandler+0x8>)
200001be:	6818      	ldr	r0, [r3, #0]
200001c0:	f000 b83c 	b.w	2000023c <_ZN7DAC_Dev8CallbackEv>
200001c4:	2000070c 	.word	0x2000070c

200001c8 <DMA2_Stream2_IRQHandler>:
200001c8:	4b01      	ldr	r3, [pc, #4]	; (200001d0 <DMA2_Stream2_IRQHandler+0x8>)
200001ca:	6818      	ldr	r0, [r3, #0]
200001cc:	f7ff bf3a 	b.w	20000044 <_ZN7ADC_Dev8CallbackEv>
200001d0:	20000704 	.word	0x20000704

200001d4 <DMA2_Stream3_IRQHandler>:
200001d4:	4770      	bx	lr
200001d6:	bf00      	nop

200001d8 <DMA2_Stream0_IRQHandler>:
200001d8:	b510      	push	{r4, lr}
200001da:	4c06      	ldr	r4, [pc, #24]	; (200001f4 <DMA2_Stream0_IRQHandler+0x1c>)
200001dc:	6820      	ldr	r0, [r4, #0]
200001de:	f000 f9f7 	bl	200005d0 <_ZN11RaspberryPi8CallbackEv>
200001e2:	4b05      	ldr	r3, [pc, #20]	; (200001f8 <DMA2_Stream0_IRQHandler+0x20>)
200001e4:	6820      	ldr	r0, [r4, #0]
200001e6:	2201      	movs	r2, #1
200001e8:	e8bd 4010 	ldmia.w	sp!, {r4, lr}
200001ec:	701a      	strb	r2, [r3, #0]
200001ee:	f000 b9fb 	b.w	200005e8 <_ZN11RaspberryPi11ResetIntPinEv>
200001f2:	bf00      	nop
200001f4:	2000071c 	.word	0x2000071c
200001f8:	20000720 	.word	0x20000720

200001fc <DMA2_Stream1_IRQHandler>:
200001fc:	4770      	bx	lr
200001fe:	bf00      	nop

20000200 <_ZN7DAC_Dev8WriteIntEl>:
20000200:	7f03      	ldrb	r3, [r0, #28]
20000202:	b1d3      	cbz	r3, 2000023a <_ZN7DAC_Dev8WriteIntEl+0x3a>
20000204:	8883      	ldrh	r3, [r0, #4]
20000206:	7f42      	ldrb	r2, [r0, #29]
20000208:	b430      	push	{r4, r5}
2000020a:	6804      	ldr	r4, [r0, #0]
2000020c:	041b      	lsls	r3, r3, #16
2000020e:	2500      	movs	r5, #0
20000210:	7705      	strb	r5, [r0, #28]
20000212:	61a3      	str	r3, [r4, #24]
20000214:	b102      	cbz	r2, 20000218 <_ZN7DAC_Dev8WriteIntEl+0x18>
20000216:	4249      	negs	r1, r1
20000218:	6cc2      	ldr	r2, [r0, #76]	; 0x4c
2000021a:	f3c1 4303 	ubfx	r3, r1, #16, #4
2000021e:	3310      	adds	r3, #16
20000220:	7013      	strb	r3, [r2, #0]
20000222:	6cc3      	ldr	r3, [r0, #76]	; 0x4c
20000224:	120a      	asrs	r2, r1, #8
20000226:	705a      	strb	r2, [r3, #1]
20000228:	6cc3      	ldr	r3, [r0, #76]	; 0x4c
2000022a:	7099      	strb	r1, [r3, #2]
2000022c:	6cc2      	ldr	r2, [r0, #76]	; 0x4c
2000022e:	6a80      	ldr	r0, [r0, #40]	; 0x28
20000230:	2303      	movs	r3, #3
20000232:	2100      	movs	r1, #0
20000234:	bc30      	pop	{r4, r5}
20000236:	f000 b87b 	b.w	20000330 <_ZN15SPI_DMA_Handler8TransferEPhS0_t>
2000023a:	4770      	bx	lr

2000023c <_ZN7DAC_Dev8CallbackEv>:
2000023c:	b510      	push	{r4, lr}
2000023e:	4604      	mov	r4, r0
20000240:	6a80      	ldr	r0, [r0, #40]	; 0x28
20000242:	f000 f895 	bl	20000370 <_ZN15SPI_DMA_Handler8CallbackEv>
20000246:	6823      	ldr	r3, [r4, #0]
20000248:	88a2      	ldrh	r2, [r4, #4]
2000024a:	619a      	str	r2, [r3, #24]
2000024c:	2301      	movs	r3, #1
2000024e:	7723      	strb	r3, [r4, #28]
20000250:	bd10      	pop	{r4, pc}
20000252:	bf00      	nop

20000254 <_ZN7DAC_Dev10WriteFloatEf>:
20000254:	f890 3044 	ldrb.w	r3, [r0, #68]	; 0x44
20000258:	ed80 0a10 	vstr	s0, [r0, #64]	; 0x40
2000025c:	b19b      	cbz	r3, 20000286 <_ZN7DAC_Dev10WriteFloatEf+0x32>
2000025e:	f8b0 3046 	ldrh.w	r3, [r0, #70]	; 0x46
20000262:	6c82      	ldr	r2, [r0, #72]	; 0x48
20000264:	b29b      	uxth	r3, r3
20000266:	1c59      	adds	r1, r3, #1
20000268:	b289      	uxth	r1, r1
2000026a:	eb02 0383 	add.w	r3, r2, r3, lsl #2
2000026e:	f8a0 1046 	strh.w	r1, [r0, #70]	; 0x46
20000272:	ed83 0a00 	vstr	s0, [r3]
20000276:	f8b0 3046 	ldrh.w	r3, [r0, #70]	; 0x46
2000027a:	f5b3 6f7a 	cmp.w	r3, #4000	; 0xfa0
2000027e:	bf84      	itt	hi
20000280:	2300      	movhi	r3, #0
20000282:	f880 3044 	strbhi.w	r3, [r0, #68]	; 0x44
20000286:	7f03      	ldrb	r3, [r0, #28]
20000288:	b903      	cbnz	r3, 2000028c <_ZN7DAC_Dev10WriteFloatEf+0x38>
2000028a:	4770      	bx	lr
2000028c:	edd0 7a06 	vldr	s15, [r0, #24]
20000290:	ed90 7a04 	vldr	s14, [r0, #16]
20000294:	8882      	ldrh	r2, [r0, #4]
20000296:	7f41      	ldrb	r1, [r0, #29]
20000298:	ee30 0a67 	vsub.f32	s0, s0, s15
2000029c:	eefe 7a00 	vmov.f32	s15, #224	; 0xbf000000 -0.5
200002a0:	eee0 7a07 	vfma.f32	s15, s0, s14
200002a4:	b410      	push	{r4}
200002a6:	eefd 7ae7 	vcvt.s32.f32	s15, s15
200002aa:	6804      	ldr	r4, [r0, #0]
200002ac:	2300      	movs	r3, #0
200002ae:	0412      	lsls	r2, r2, #16
200002b0:	7703      	strb	r3, [r0, #28]
200002b2:	ee17 3a90 	vmov	r3, s15
200002b6:	61a2      	str	r2, [r4, #24]
200002b8:	b101      	cbz	r1, 200002bc <_ZN7DAC_Dev10WriteFloatEf+0x68>
200002ba:	425b      	negs	r3, r3
200002bc:	6cc1      	ldr	r1, [r0, #76]	; 0x4c
200002be:	f3c3 4203 	ubfx	r2, r3, #16, #4
200002c2:	3210      	adds	r2, #16
200002c4:	700a      	strb	r2, [r1, #0]
200002c6:	6cc2      	ldr	r2, [r0, #76]	; 0x4c
200002c8:	1219      	asrs	r1, r3, #8
200002ca:	7051      	strb	r1, [r2, #1]
200002cc:	6cc2      	ldr	r2, [r0, #76]	; 0x4c
200002ce:	7093      	strb	r3, [r2, #2]
200002d0:	6cc2      	ldr	r2, [r0, #76]	; 0x4c
200002d2:	f85d 4b04 	ldr.w	r4, [sp], #4
200002d6:	6a80      	ldr	r0, [r0, #40]	; 0x28
200002d8:	2303      	movs	r3, #3
200002da:	2100      	movs	r1, #0
200002dc:	f000 b828 	b.w	20000330 <_ZN15SPI_DMA_Handler8TransferEPhS0_t>

200002e0 <_ZN7DAC_Dev9LinearizeEf>:
200002e0:	ed90 7a0f 	vldr	s14, [r0, #60]	; 0x3c
200002e4:	edd0 7a0d 	vldr	s15, [r0, #52]	; 0x34
200002e8:	6ac2      	ldr	r2, [r0, #44]	; 0x2c
200002ea:	ee30 7a47 	vsub.f32	s14, s0, s14
200002ee:	ee27 7a27 	vmul.f32	s14, s14, s15
200002f2:	eefc 7ac7 	vcvt.u32.f32	s15, s14
200002f6:	ee17 3a90 	vmov	r3, s15
200002fa:	eb02 0283 	add.w	r2, r2, r3, lsl #2
200002fe:	3301      	adds	r3, #1
20000300:	ee00 3a10 	vmov	s0, r3
20000304:	eef8 7a67 	vcvt.f32.u32	s15, s15
20000308:	ed92 6a01 	vldr	s12, [r2, #4]
2000030c:	edd2 6a00 	vldr	s13, [r2]
20000310:	ee77 7a67 	vsub.f32	s15, s14, s15
20000314:	eeb8 0a40 	vcvt.f32.u32	s0, s0
20000318:	ee67 7a86 	vmul.f32	s15, s15, s12
2000031c:	ee30 0a47 	vsub.f32	s0, s0, s14
20000320:	eee0 7a26 	vfma.f32	s15, s0, s13
20000324:	eefc 7ae7 	vcvt.u32.f32	s15, s15
20000328:	ee17 0a90 	vmov	r0, s15
2000032c:	4770      	bx	lr
2000032e:	bf00      	nop

20000330 <_ZN15SPI_DMA_Handler8TransferEPhS0_t>:
20000330:	b430      	push	{r4, r5}
20000332:	68c4      	ldr	r4, [r0, #12]
20000334:	b1ac      	cbz	r4, 20000362 <_ZN15SPI_DMA_Handler8TransferEPhS0_t+0x32>
20000336:	60e2      	str	r2, [r4, #12]
20000338:	6063      	str	r3, [r4, #4]
2000033a:	6822      	ldr	r2, [r4, #0]
2000033c:	f042 0201 	orr.w	r2, r2, #1
20000340:	6022      	str	r2, [r4, #0]
20000342:	6882      	ldr	r2, [r0, #8]
20000344:	2503      	movs	r5, #3
20000346:	2402      	movs	r4, #2
20000348:	b17a      	cbz	r2, 2000036a <_ZN15SPI_DMA_Handler8TransferEPhS0_t+0x3a>
2000034a:	60d1      	str	r1, [r2, #12]
2000034c:	6053      	str	r3, [r2, #4]
2000034e:	6811      	ldr	r1, [r2, #0]
20000350:	f041 0101 	orr.w	r1, r1, #1
20000354:	6011      	str	r1, [r2, #0]
20000356:	6982      	ldr	r2, [r0, #24]
20000358:	6853      	ldr	r3, [r2, #4]
2000035a:	432b      	orrs	r3, r5
2000035c:	6053      	str	r3, [r2, #4]
2000035e:	bc30      	pop	{r4, r5}
20000360:	4770      	bx	lr
20000362:	6882      	ldr	r2, [r0, #8]
20000364:	2501      	movs	r5, #1
20000366:	2a00      	cmp	r2, #0
20000368:	d1ef      	bne.n	2000034a <_ZN15SPI_DMA_Handler8TransferEPhS0_t+0x1a>
2000036a:	4625      	mov	r5, r4
2000036c:	e7f3      	b.n	20000356 <_ZN15SPI_DMA_Handler8TransferEPhS0_t+0x26>
2000036e:	bf00      	nop

20000370 <_ZN15SPI_DMA_Handler8CallbackEv>:
20000370:	b410      	push	{r4}
20000372:	6982      	ldr	r2, [r0, #24]
20000374:	6893      	ldr	r3, [r2, #8]
20000376:	061b      	lsls	r3, r3, #24
20000378:	d4fc      	bmi.n	20000374 <_ZN15SPI_DMA_Handler8CallbackEv+0x4>
2000037a:	6883      	ldr	r3, [r0, #8]
2000037c:	b153      	cbz	r3, 20000394 <_ZN15SPI_DMA_Handler8CallbackEv+0x24>
2000037e:	6801      	ldr	r1, [r0, #0]
20000380:	6904      	ldr	r4, [r0, #16]
20000382:	600c      	str	r4, [r1, #0]
20000384:	6819      	ldr	r1, [r3, #0]
20000386:	f021 0101 	bic.w	r1, r1, #1
2000038a:	6019      	str	r1, [r3, #0]
2000038c:	6853      	ldr	r3, [r2, #4]
2000038e:	f023 0301 	bic.w	r3, r3, #1
20000392:	6053      	str	r3, [r2, #4]
20000394:	68c3      	ldr	r3, [r0, #12]
20000396:	b153      	cbz	r3, 200003ae <_ZN15SPI_DMA_Handler8CallbackEv+0x3e>
20000398:	6841      	ldr	r1, [r0, #4]
2000039a:	6940      	ldr	r0, [r0, #20]
2000039c:	6008      	str	r0, [r1, #0]
2000039e:	6819      	ldr	r1, [r3, #0]
200003a0:	f021 0101 	bic.w	r1, r1, #1
200003a4:	6019      	str	r1, [r3, #0]
200003a6:	6853      	ldr	r3, [r2, #4]
200003a8:	f023 0302 	bic.w	r3, r3, #2
200003ac:	6053      	str	r3, [r2, #4]
200003ae:	f85d 4b04 	ldr.w	r4, [sp], #4
200003b2:	4770      	bx	lr

200003b4 <_ZN12Oscilloscope5InputEf>:
200003b4:	6983      	ldr	r3, [r0, #24]
200003b6:	b9cb      	cbnz	r3, 200003ec <_ZN12Oscilloscope5InputEf+0x38>
200003b8:	6903      	ldr	r3, [r0, #16]
200003ba:	b510      	push	{r4, lr}
200003bc:	4604      	mov	r4, r0
200003be:	b973      	cbnz	r3, 200003de <_ZN12Oscilloscope5InputEf+0x2a>
200003c0:	68c3      	ldr	r3, [r0, #12]
200003c2:	6802      	ldr	r2, [r0, #0]
200003c4:	eb02 0083 	add.w	r0, r2, r3, lsl #2
200003c8:	3301      	adds	r3, #1
200003ca:	f5b3 7f7a 	cmp.w	r3, #1000	; 0x3e8
200003ce:	ed80 0a05 	vstr	s0, [r0, #20]
200003d2:	60e3      	str	r3, [r4, #12]
200003d4:	d00e      	beq.n	200003f4 <_ZN12Oscilloscope5InputEf+0x40>
200003d6:	f5b3 6ffa 	cmp.w	r3, #2000	; 0x7d0
200003da:	d020      	beq.n	2000041e <_ZN12Oscilloscope5InputEf+0x6a>
200003dc:	6923      	ldr	r3, [r4, #16]
200003de:	88a2      	ldrh	r2, [r4, #4]
200003e0:	3301      	adds	r3, #1
200003e2:	4293      	cmp	r3, r2
200003e4:	bf08      	it	eq
200003e6:	2300      	moveq	r3, #0
200003e8:	6123      	str	r3, [r4, #16]
200003ea:	bd10      	pop	{r4, pc}
200003ec:	6983      	ldr	r3, [r0, #24]
200003ee:	3b01      	subs	r3, #1
200003f0:	6183      	str	r3, [r0, #24]
200003f2:	4770      	bx	lr
200003f4:	68a0      	ldr	r0, [r4, #8]
200003f6:	f640 73b4 	movw	r3, #4020	; 0xfb4
200003fa:	68c1      	ldr	r1, [r0, #12]
200003fc:	f000 f8c2 	bl	20000584 <_ZN11RaspberryPi8TransferEPhS0_m>
20000400:	88a1      	ldrh	r1, [r4, #4]
20000402:	4a16      	ldr	r2, [pc, #88]	; (2000045c <_ZN12Oscilloscope5InputEf+0xa8>)
20000404:	f240 33e7 	movw	r3, #999	; 0x3e7
20000408:	fb03 f301 	mul.w	r3, r3, r1
2000040c:	4293      	cmp	r3, r2
2000040e:	d822      	bhi.n	20000456 <_ZN12Oscilloscope5InputEf+0xa2>
20000410:	f5c3 3243 	rsb	r2, r3, #199680	; 0x30c00
20000414:	f502 72a0 	add.w	r2, r2, #320	; 0x140
20000418:	68e3      	ldr	r3, [r4, #12]
2000041a:	61a2      	str	r2, [r4, #24]
2000041c:	e7db      	b.n	200003d6 <_ZN12Oscilloscope5InputEf+0x22>
2000041e:	68a0      	ldr	r0, [r4, #8]
20000420:	6822      	ldr	r2, [r4, #0]
20000422:	68c1      	ldr	r1, [r0, #12]
20000424:	f502 627a 	add.w	r2, r2, #4000	; 0xfa0
20000428:	f640 73b4 	movw	r3, #4020	; 0xfb4
2000042c:	f000 f8aa 	bl	20000584 <_ZN11RaspberryPi8TransferEPhS0_m>
20000430:	88a2      	ldrh	r2, [r4, #4]
20000432:	490a      	ldr	r1, [pc, #40]	; (2000045c <_ZN12Oscilloscope5InputEf+0xa8>)
20000434:	f240 33e7 	movw	r3, #999	; 0x3e7
20000438:	fb03 f302 	mul.w	r3, r3, r2
2000043c:	2000      	movs	r0, #0
2000043e:	428b      	cmp	r3, r1
20000440:	60e0      	str	r0, [r4, #12]
20000442:	d806      	bhi.n	20000452 <_ZN12Oscilloscope5InputEf+0x9e>
20000444:	f5c3 3143 	rsb	r1, r3, #199680	; 0x30c00
20000448:	f501 71a0 	add.w	r1, r1, #320	; 0x140
2000044c:	6923      	ldr	r3, [r4, #16]
2000044e:	61a1      	str	r1, [r4, #24]
20000450:	e7c6      	b.n	200003e0 <_ZN12Oscilloscope5InputEf+0x2c>
20000452:	6923      	ldr	r3, [r4, #16]
20000454:	e7c4      	b.n	200003e0 <_ZN12Oscilloscope5InputEf+0x2c>
20000456:	68e3      	ldr	r3, [r4, #12]
20000458:	e7bd      	b.n	200003d6 <_ZN12Oscilloscope5InputEf+0x22>
2000045a:	bf00      	nop
2000045c:	00030d3f 	.word	0x00030d3f

20000460 <_ZN12Oscilloscope5InputEff>:
20000460:	b538      	push	{r3, r4, r5, lr}
20000462:	6983      	ldr	r3, [r0, #24]
20000464:	b9db      	cbnz	r3, 2000049e <_ZN12Oscilloscope5InputEff+0x3e>
20000466:	6903      	ldr	r3, [r0, #16]
20000468:	4604      	mov	r4, r0
2000046a:	b98b      	cbnz	r3, 20000490 <_ZN12Oscilloscope5InputEff+0x30>
2000046c:	68c3      	ldr	r3, [r0, #12]
2000046e:	6802      	ldr	r2, [r0, #0]
20000470:	1d58      	adds	r0, r3, #5
20000472:	3302      	adds	r3, #2
20000474:	eb02 0080 	add.w	r0, r2, r0, lsl #2
20000478:	f5b3 7f7a 	cmp.w	r3, #1000	; 0x3e8
2000047c:	ed80 0a00 	vstr	s0, [r0]
20000480:	edc0 0a01 	vstr	s1, [r0, #4]
20000484:	60e3      	str	r3, [r4, #12]
20000486:	d00e      	beq.n	200004a6 <_ZN12Oscilloscope5InputEff+0x46>
20000488:	f5b3 6ffa 	cmp.w	r3, #2000	; 0x7d0
2000048c:	d020      	beq.n	200004d0 <_ZN12Oscilloscope5InputEff+0x70>
2000048e:	6923      	ldr	r3, [r4, #16]
20000490:	88a2      	ldrh	r2, [r4, #4]
20000492:	3301      	adds	r3, #1
20000494:	4293      	cmp	r3, r2
20000496:	bf08      	it	eq
20000498:	2300      	moveq	r3, #0
2000049a:	6123      	str	r3, [r4, #16]
2000049c:	bd38      	pop	{r3, r4, r5, pc}
2000049e:	6983      	ldr	r3, [r0, #24]
200004a0:	3b01      	subs	r3, #1
200004a2:	6183      	str	r3, [r0, #24]
200004a4:	bd38      	pop	{r3, r4, r5, pc}
200004a6:	68a0      	ldr	r0, [r4, #8]
200004a8:	f640 73b4 	movw	r3, #4020	; 0xfb4
200004ac:	68c1      	ldr	r1, [r0, #12]
200004ae:	f000 f869 	bl	20000584 <_ZN11RaspberryPi8TransferEPhS0_m>
200004b2:	88a1      	ldrh	r1, [r4, #4]
200004b4:	4a15      	ldr	r2, [pc, #84]	; (2000050c <_ZN12Oscilloscope5InputEff+0xac>)
200004b6:	f240 33e7 	movw	r3, #999	; 0x3e7
200004ba:	fb03 f301 	mul.w	r3, r3, r1
200004be:	4293      	cmp	r3, r2
200004c0:	d822      	bhi.n	20000508 <_ZN12Oscilloscope5InputEff+0xa8>
200004c2:	f5c3 3243 	rsb	r2, r3, #199680	; 0x30c00
200004c6:	f502 72a0 	add.w	r2, r2, #320	; 0x140
200004ca:	68e3      	ldr	r3, [r4, #12]
200004cc:	61a2      	str	r2, [r4, #24]
200004ce:	e7db      	b.n	20000488 <_ZN12Oscilloscope5InputEff+0x28>
200004d0:	68a0      	ldr	r0, [r4, #8]
200004d2:	6822      	ldr	r2, [r4, #0]
200004d4:	68c1      	ldr	r1, [r0, #12]
200004d6:	f502 627a 	add.w	r2, r2, #4000	; 0xfa0
200004da:	f640 73b4 	movw	r3, #4020	; 0xfb4
200004de:	f000 f851 	bl	20000584 <_ZN11RaspberryPi8TransferEPhS0_m>
200004e2:	88a2      	ldrh	r2, [r4, #4]
200004e4:	4909      	ldr	r1, [pc, #36]	; (2000050c <_ZN12Oscilloscope5InputEff+0xac>)
200004e6:	f240 33e7 	movw	r3, #999	; 0x3e7
200004ea:	fb03 f302 	mul.w	r3, r3, r2
200004ee:	2000      	movs	r0, #0
200004f0:	428b      	cmp	r3, r1
200004f2:	60e0      	str	r0, [r4, #12]
200004f4:	d806      	bhi.n	20000504 <_ZN12Oscilloscope5InputEff+0xa4>
200004f6:	f5c3 3143 	rsb	r1, r3, #199680	; 0x30c00
200004fa:	f501 71a0 	add.w	r1, r1, #320	; 0x140
200004fe:	6923      	ldr	r3, [r4, #16]
20000500:	61a1      	str	r1, [r4, #24]
20000502:	e7c6      	b.n	20000492 <_ZN12Oscilloscope5InputEff+0x32>
20000504:	6923      	ldr	r3, [r4, #16]
20000506:	e7c4      	b.n	20000492 <_ZN12Oscilloscope5InputEff+0x32>
20000508:	68e3      	ldr	r3, [r4, #12]
2000050a:	e7bd      	b.n	20000488 <_ZN12Oscilloscope5InputEff+0x28>
2000050c:	00030d3f 	.word	0x00030d3f

20000510 <_ZN3PID17CalculateFeedbackEff>:
20000510:	f890 302c 	ldrb.w	r3, [r0, #44]	; 0x2c
20000514:	b393      	cbz	r3, 2000057c <_ZN3PID17CalculateFeedbackEff+0x6c>
20000516:	ee70 0a60 	vsub.f32	s1, s0, s1
2000051a:	edd0 6a00 	vldr	s13, [r0]
2000051e:	ed90 6a03 	vldr	s12, [r0, #12]
20000522:	ed90 7a01 	vldr	s14, [r0, #4]
20000526:	ed90 4a04 	vldr	s8, [r0, #16]
2000052a:	edd0 7a09 	vldr	s15, [r0, #36]	; 0x24
2000052e:	edd0 4a05 	vldr	s9, [r0, #20]
20000532:	ed90 5a06 	vldr	s10, [r0, #24]
20000536:	ed90 0a07 	vldr	s0, [r0, #28]
2000053a:	ee70 6ae6 	vsub.f32	s13, s1, s13
2000053e:	eea6 7a20 	vfma.f32	s14, s12, s1
20000542:	eec6 5a86 	vdiv.f32	s11, s13, s12
20000546:	eee4 7a20 	vfma.f32	s15, s8, s1
2000054a:	ed80 7a01 	vstr	s14, [r0, #4]
2000054e:	eee7 7a24 	vfma.f32	s15, s14, s9
20000552:	eee5 7a25 	vfma.f32	s15, s10, s11
20000556:	eeb4 0ae7 	vcmpe.f32	s0, s15
2000055a:	eef1 fa10 	vmrs	APSR_nzcv, fpscr
2000055e:	d408      	bmi.n	20000572 <_ZN3PID17CalculateFeedbackEff+0x62>
20000560:	ed90 0a08 	vldr	s0, [r0, #32]
20000564:	eeb4 0ae7 	vcmpe.f32	s0, s15
20000568:	eef1 fa10 	vmrs	APSR_nzcv, fpscr
2000056c:	bfb8      	it	lt
2000056e:	eeb0 0a67 	vmovlt.f32	s0, s15
20000572:	edc0 0a00 	vstr	s1, [r0]
20000576:	ed80 0a09 	vstr	s0, [r0, #36]	; 0x24
2000057a:	4770      	bx	lr
2000057c:	ee70 0ac0 	vsub.f32	s1, s1, s0
20000580:	e7cb      	b.n	2000051a <_ZN3PID17CalculateFeedbackEff+0xa>
20000582:	bf00      	nop

20000584 <_ZN11RaspberryPi8TransferEPhS0_m>:
20000584:	b530      	push	{r4, r5, lr}
20000586:	4604      	mov	r4, r0
20000588:	7a80      	ldrb	r0, [r0, #10]
2000058a:	b083      	sub	sp, #12
2000058c:	b158      	cbz	r0, 200005a6 <_ZN11RaspberryPi8TransferEPhS0_m+0x22>
2000058e:	68e0      	ldr	r0, [r4, #12]
20000590:	2500      	movs	r5, #0
20000592:	4288      	cmp	r0, r1
20000594:	72a5      	strb	r5, [r4, #10]
20000596:	d008      	beq.n	200005aa <_ZN11RaspberryPi8TransferEPhS0_m+0x26>
20000598:	b29b      	uxth	r3, r3
2000059a:	6820      	ldr	r0, [r4, #0]
2000059c:	f7ff fec8 	bl	20000330 <_ZN15SPI_DMA_Handler8TransferEPhS0_t>
200005a0:	6863      	ldr	r3, [r4, #4]
200005a2:	8922      	ldrh	r2, [r4, #8]
200005a4:	619a      	str	r2, [r3, #24]
200005a6:	b003      	add	sp, #12
200005a8:	bd30      	pop	{r4, r5, pc}
200005aa:	f640 70b4 	movw	r0, #4020	; 0xfb4
200005ae:	4283      	cmp	r3, r0
200005b0:	d9f2      	bls.n	20000598 <_ZN11RaspberryPi8TransferEPhS0_m+0x14>
200005b2:	4608      	mov	r0, r1
200005b4:	2101      	movs	r1, #1
200005b6:	e9cd 3200 	strd	r3, r2, [sp]
200005ba:	f000 f84d 	bl	20000658 <___ZdlPvj_veneer>
200005be:	9b00      	ldr	r3, [sp, #0]
200005c0:	4618      	mov	r0, r3
200005c2:	f000 f855 	bl	20000670 <___Znaj_veneer>
200005c6:	e9dd 3200 	ldrd	r3, r2, [sp]
200005ca:	4601      	mov	r1, r0
200005cc:	60e0      	str	r0, [r4, #12]
200005ce:	e7e3      	b.n	20000598 <_ZN11RaspberryPi8TransferEPhS0_m+0x14>

200005d0 <_ZN11RaspberryPi8CallbackEv>:
200005d0:	b510      	push	{r4, lr}
200005d2:	4604      	mov	r4, r0
200005d4:	6800      	ldr	r0, [r0, #0]
200005d6:	f7ff fecb 	bl	20000370 <_ZN15SPI_DMA_Handler8CallbackEv>
200005da:	2301      	movs	r3, #1
200005dc:	72a3      	strb	r3, [r4, #10]
200005de:	bd10      	pop	{r4, pc}

200005e0 <_ZN11RaspberryPi9SetIntPinEv>:
200005e0:	6843      	ldr	r3, [r0, #4]
200005e2:	8902      	ldrh	r2, [r0, #8]
200005e4:	619a      	str	r2, [r3, #24]
200005e6:	4770      	bx	lr

200005e8 <_ZN11RaspberryPi11ResetIntPinEv>:
200005e8:	8903      	ldrh	r3, [r0, #8]
200005ea:	6842      	ldr	r2, [r0, #4]
200005ec:	041b      	lsls	r3, r3, #16
200005ee:	6193      	str	r3, [r2, #24]
200005f0:	4770      	bx	lr
200005f2:	bf00      	nop

200005f4 <DMA1_Stream3_IRQHandler>:
200005f4:	b508      	push	{r3, lr}
200005f6:	4b0b      	ldr	r3, [pc, #44]	; (20000624 <DMA1_Stream3_IRQHandler+0x30>)
200005f8:	e9d3 2016 	ldrd	r2, r0, [r3, #88]	; 0x58
200005fc:	2320      	movs	r3, #32
200005fe:	6811      	ldr	r1, [r2, #0]
20000600:	4083      	lsls	r3, r0
20000602:	4219      	tst	r1, r3
20000604:	d008      	beq.n	20000618 <DMA1_Stream3_IRQHandler+0x24>
20000606:	4808      	ldr	r0, [pc, #32]	; (20000628 <DMA1_Stream3_IRQHandler+0x34>)
20000608:	6093      	str	r3, [r2, #8]
2000060a:	6802      	ldr	r2, [r0, #0]
2000060c:	6813      	ldr	r3, [r2, #0]
2000060e:	f023 0340 	bic.w	r3, r3, #64	; 0x40
20000612:	6013      	str	r3, [r2, #0]
20000614:	f000 f81c 	bl	20000650 <__HAL_SPI_RxCpltCallback_veneer>
20000618:	4802      	ldr	r0, [pc, #8]	; (20000624 <DMA1_Stream3_IRQHandler+0x30>)
2000061a:	e8bd 4008 	ldmia.w	sp!, {r3, lr}
2000061e:	f000 b81f 	b.w	20000660 <__HAL_DMA_IRQHandler_veneer>
20000622:	bf00      	nop
20000624:	20000824 	.word	0x20000824
20000628:	20000734 	.word	0x20000734

2000062c <DMA1_Stream4_IRQHandler>:
2000062c:	4801      	ldr	r0, [pc, #4]	; (20000634 <DMA1_Stream4_IRQHandler+0x8>)
2000062e:	f000 b817 	b.w	20000660 <__HAL_DMA_IRQHandler_veneer>
20000632:	bf00      	nop
20000634:	20000b8c 	.word	0x20000b8c

20000638 <TIM2_IRQHandler>:
20000638:	4801      	ldr	r0, [pc, #4]	; (20000640 <TIM2_IRQHandler+0x8>)
2000063a:	f000 b815 	b.w	20000668 <__HAL_TIM_IRQHandler_veneer>
2000063e:	bf00      	nop
20000640:	20000aec 	.word	0x20000aec

20000644 <TIM3_IRQHandler>:
20000644:	4801      	ldr	r0, [pc, #4]	; (2000064c <TIM3_IRQHandler+0x8>)
20000646:	f000 b80f 	b.w	20000668 <__HAL_TIM_IRQHandler_veneer>
2000064a:	bf00      	nop
2000064c:	2000093c 	.word	0x2000093c

20000650 <__HAL_SPI_RxCpltCallback_veneer>:
20000650:	f85f f000 	ldr.w	pc, [pc]	; 20000654 <__HAL_SPI_RxCpltCallback_veneer+0x4>
20000654:	08002f71 	.word	0x08002f71

20000658 <___ZdlPvj_veneer>:
20000658:	f85f f000 	ldr.w	pc, [pc]	; 2000065c <___ZdlPvj_veneer+0x4>
2000065c:	080033a9 	.word	0x080033a9

20000660 <__HAL_DMA_IRQHandler_veneer>:
20000660:	f85f f000 	ldr.w	pc, [pc]	; 20000664 <__HAL_DMA_IRQHandler_veneer+0x4>
20000664:	0800250d 	.word	0x0800250d

20000668 <__HAL_TIM_IRQHandler_veneer>:
20000668:	f85f f000 	ldr.w	pc, [pc]	; 2000066c <__HAL_TIM_IRQHandler_veneer+0x4>
2000066c:	08003205 	.word	0x08003205

20000670 <___Znaj_veneer>:
20000670:	f85f f000 	ldr.w	pc, [pc]	; 20000674 <___Znaj_veneer+0x4>
20000674:	080033a5 	.word	0x080033a5
